ARM GAS  /tmp/ccUHhNY0.s 			page 1


   1              		.cpu cortex-m0plus
   2              		.eabi_attribute 20, 1
   3              		.eabi_attribute 21, 1
   4              		.eabi_attribute 23, 3
   5              		.eabi_attribute 24, 1
   6              		.eabi_attribute 25, 1
   7              		.eabi_attribute 26, 1
   8              		.eabi_attribute 30, 1
   9              		.eabi_attribute 34, 0
  10              		.eabi_attribute 18, 4
  11              		.file	"stm32l0xx_ll_exti.c"
  12              		.text
  13              	.Ltext0:
  14              		.cfi_sections	.debug_frame
  15              		.section	.text.LL_EXTI_DeInit,"ax",%progbits
  16              		.align	1
  17              		.global	LL_EXTI_DeInit
  18              		.syntax unified
  19              		.code	16
  20              		.thumb_func
  21              		.fpu softvfp
  23              	LL_EXTI_DeInit:
  24              	.LFB50:
  25              		.file 1 "/home/tejas_tj/STM32Cube/Repository/STM32Cube_FW_L0_V1.10.0/Drivers/STM32L0xx_HAL_Driver/
   1:/home/tejas_tj/STM32Cube/Repository/STM32Cube_FW_L0_V1.10.0/Drivers/STM32L0xx_HAL_Driver/Src/stm32l0xx_ll_exti.c **** /**
   2:/home/tejas_tj/STM32Cube/Repository/STM32Cube_FW_L0_V1.10.0/Drivers/STM32L0xx_HAL_Driver/Src/stm32l0xx_ll_exti.c ****   ******************************************************************************
   3:/home/tejas_tj/STM32Cube/Repository/STM32Cube_FW_L0_V1.10.0/Drivers/STM32L0xx_HAL_Driver/Src/stm32l0xx_ll_exti.c ****   * @file    stm32l0xx_ll_exti.c
   4:/home/tejas_tj/STM32Cube/Repository/STM32Cube_FW_L0_V1.10.0/Drivers/STM32L0xx_HAL_Driver/Src/stm32l0xx_ll_exti.c ****   * @author  MCD Application Team
   5:/home/tejas_tj/STM32Cube/Repository/STM32Cube_FW_L0_V1.10.0/Drivers/STM32L0xx_HAL_Driver/Src/stm32l0xx_ll_exti.c ****   * @brief   EXTI LL module driver.
   6:/home/tejas_tj/STM32Cube/Repository/STM32Cube_FW_L0_V1.10.0/Drivers/STM32L0xx_HAL_Driver/Src/stm32l0xx_ll_exti.c ****   ******************************************************************************
   7:/home/tejas_tj/STM32Cube/Repository/STM32Cube_FW_L0_V1.10.0/Drivers/STM32L0xx_HAL_Driver/Src/stm32l0xx_ll_exti.c ****   * @attention
   8:/home/tejas_tj/STM32Cube/Repository/STM32Cube_FW_L0_V1.10.0/Drivers/STM32L0xx_HAL_Driver/Src/stm32l0xx_ll_exti.c ****   *
   9:/home/tejas_tj/STM32Cube/Repository/STM32Cube_FW_L0_V1.10.0/Drivers/STM32L0xx_HAL_Driver/Src/stm32l0xx_ll_exti.c ****   * <h2><center>&copy; COPYRIGHT(c) 2016 STMicroelectronics</center></h2>
  10:/home/tejas_tj/STM32Cube/Repository/STM32Cube_FW_L0_V1.10.0/Drivers/STM32L0xx_HAL_Driver/Src/stm32l0xx_ll_exti.c ****   *
  11:/home/tejas_tj/STM32Cube/Repository/STM32Cube_FW_L0_V1.10.0/Drivers/STM32L0xx_HAL_Driver/Src/stm32l0xx_ll_exti.c ****   * Redistribution and use in source and binary forms, with or without modification,
  12:/home/tejas_tj/STM32Cube/Repository/STM32Cube_FW_L0_V1.10.0/Drivers/STM32L0xx_HAL_Driver/Src/stm32l0xx_ll_exti.c ****   * are permitted provided that the following conditions are met:
  13:/home/tejas_tj/STM32Cube/Repository/STM32Cube_FW_L0_V1.10.0/Drivers/STM32L0xx_HAL_Driver/Src/stm32l0xx_ll_exti.c ****   *   1. Redistributions of source code must retain the above copyright notice,
  14:/home/tejas_tj/STM32Cube/Repository/STM32Cube_FW_L0_V1.10.0/Drivers/STM32L0xx_HAL_Driver/Src/stm32l0xx_ll_exti.c ****   *      this list of conditions and the following disclaimer.
  15:/home/tejas_tj/STM32Cube/Repository/STM32Cube_FW_L0_V1.10.0/Drivers/STM32L0xx_HAL_Driver/Src/stm32l0xx_ll_exti.c ****   *   2. Redistributions in binary form must reproduce the above copyright notice,
  16:/home/tejas_tj/STM32Cube/Repository/STM32Cube_FW_L0_V1.10.0/Drivers/STM32L0xx_HAL_Driver/Src/stm32l0xx_ll_exti.c ****   *      this list of conditions and the following disclaimer in the documentation
  17:/home/tejas_tj/STM32Cube/Repository/STM32Cube_FW_L0_V1.10.0/Drivers/STM32L0xx_HAL_Driver/Src/stm32l0xx_ll_exti.c ****   *      and/or other materials provided with the distribution.
  18:/home/tejas_tj/STM32Cube/Repository/STM32Cube_FW_L0_V1.10.0/Drivers/STM32L0xx_HAL_Driver/Src/stm32l0xx_ll_exti.c ****   *   3. Neither the name of STMicroelectronics nor the names of its contributors
  19:/home/tejas_tj/STM32Cube/Repository/STM32Cube_FW_L0_V1.10.0/Drivers/STM32L0xx_HAL_Driver/Src/stm32l0xx_ll_exti.c ****   *      may be used to endorse or promote products derived from this software
  20:/home/tejas_tj/STM32Cube/Repository/STM32Cube_FW_L0_V1.10.0/Drivers/STM32L0xx_HAL_Driver/Src/stm32l0xx_ll_exti.c ****   *      without specific prior written permission.
  21:/home/tejas_tj/STM32Cube/Repository/STM32Cube_FW_L0_V1.10.0/Drivers/STM32L0xx_HAL_Driver/Src/stm32l0xx_ll_exti.c ****   *
  22:/home/tejas_tj/STM32Cube/Repository/STM32Cube_FW_L0_V1.10.0/Drivers/STM32L0xx_HAL_Driver/Src/stm32l0xx_ll_exti.c ****   * THIS SOFTWARE IS PROVIDED BY THE COPYRIGHT HOLDERS AND CONTRIBUTORS "AS IS"
  23:/home/tejas_tj/STM32Cube/Repository/STM32Cube_FW_L0_V1.10.0/Drivers/STM32L0xx_HAL_Driver/Src/stm32l0xx_ll_exti.c ****   * AND ANY EXPRESS OR IMPLIED WARRANTIES, INCLUDING, BUT NOT LIMITED TO, THE
  24:/home/tejas_tj/STM32Cube/Repository/STM32Cube_FW_L0_V1.10.0/Drivers/STM32L0xx_HAL_Driver/Src/stm32l0xx_ll_exti.c ****   * IMPLIED WARRANTIES OF MERCHANTABILITY AND FITNESS FOR A PARTICULAR PURPOSE ARE
  25:/home/tejas_tj/STM32Cube/Repository/STM32Cube_FW_L0_V1.10.0/Drivers/STM32L0xx_HAL_Driver/Src/stm32l0xx_ll_exti.c ****   * DISCLAIMED. IN NO EVENT SHALL THE COPYRIGHT HOLDER OR CONTRIBUTORS BE LIABLE
  26:/home/tejas_tj/STM32Cube/Repository/STM32Cube_FW_L0_V1.10.0/Drivers/STM32L0xx_HAL_Driver/Src/stm32l0xx_ll_exti.c ****   * FOR ANY DIRECT, INDIRECT, INCIDENTAL, SPECIAL, EXEMPLARY, OR CONSEQUENTIAL
  27:/home/tejas_tj/STM32Cube/Repository/STM32Cube_FW_L0_V1.10.0/Drivers/STM32L0xx_HAL_Driver/Src/stm32l0xx_ll_exti.c ****   * DAMAGES (INCLUDING, BUT NOT LIMITED TO, PROCUREMENT OF SUBSTITUTE GOODS OR
  28:/home/tejas_tj/STM32Cube/Repository/STM32Cube_FW_L0_V1.10.0/Drivers/STM32L0xx_HAL_Driver/Src/stm32l0xx_ll_exti.c ****   * SERVICES; LOSS OF USE, DATA, OR PROFITS; OR BUSINESS INTERRUPTION) HOWEVER
  29:/home/tejas_tj/STM32Cube/Repository/STM32Cube_FW_L0_V1.10.0/Drivers/STM32L0xx_HAL_Driver/Src/stm32l0xx_ll_exti.c ****   * CAUSED AND ON ANY THEORY OF LIABILITY, WHETHER IN CONTRACT, STRICT LIABILITY,
  30:/home/tejas_tj/STM32Cube/Repository/STM32Cube_FW_L0_V1.10.0/Drivers/STM32L0xx_HAL_Driver/Src/stm32l0xx_ll_exti.c ****   * OR TORT (INCLUDING NEGLIGENCE OR OTHERWISE) ARISING IN ANY WAY OUT OF THE USE
  31:/home/tejas_tj/STM32Cube/Repository/STM32Cube_FW_L0_V1.10.0/Drivers/STM32L0xx_HAL_Driver/Src/stm32l0xx_ll_exti.c ****   * OF THIS SOFTWARE, EVEN IF ADVISED OF THE POSSIBILITY OF SUCH DAMAGE.
  32:/home/tejas_tj/STM32Cube/Repository/STM32Cube_FW_L0_V1.10.0/Drivers/STM32L0xx_HAL_Driver/Src/stm32l0xx_ll_exti.c ****   *
  33:/home/tejas_tj/STM32Cube/Repository/STM32Cube_FW_L0_V1.10.0/Drivers/STM32L0xx_HAL_Driver/Src/stm32l0xx_ll_exti.c ****   ******************************************************************************
ARM GAS  /tmp/ccUHhNY0.s 			page 2


  34:/home/tejas_tj/STM32Cube/Repository/STM32Cube_FW_L0_V1.10.0/Drivers/STM32L0xx_HAL_Driver/Src/stm32l0xx_ll_exti.c ****   */
  35:/home/tejas_tj/STM32Cube/Repository/STM32Cube_FW_L0_V1.10.0/Drivers/STM32L0xx_HAL_Driver/Src/stm32l0xx_ll_exti.c **** #if defined(USE_FULL_LL_DRIVER)
  36:/home/tejas_tj/STM32Cube/Repository/STM32Cube_FW_L0_V1.10.0/Drivers/STM32L0xx_HAL_Driver/Src/stm32l0xx_ll_exti.c **** 
  37:/home/tejas_tj/STM32Cube/Repository/STM32Cube_FW_L0_V1.10.0/Drivers/STM32L0xx_HAL_Driver/Src/stm32l0xx_ll_exti.c **** /* Includes ------------------------------------------------------------------*/
  38:/home/tejas_tj/STM32Cube/Repository/STM32Cube_FW_L0_V1.10.0/Drivers/STM32L0xx_HAL_Driver/Src/stm32l0xx_ll_exti.c **** #include "stm32l0xx_ll_exti.h"
  39:/home/tejas_tj/STM32Cube/Repository/STM32Cube_FW_L0_V1.10.0/Drivers/STM32L0xx_HAL_Driver/Src/stm32l0xx_ll_exti.c **** #ifdef  USE_FULL_ASSERT
  40:/home/tejas_tj/STM32Cube/Repository/STM32Cube_FW_L0_V1.10.0/Drivers/STM32L0xx_HAL_Driver/Src/stm32l0xx_ll_exti.c **** #include "stm32_assert.h"
  41:/home/tejas_tj/STM32Cube/Repository/STM32Cube_FW_L0_V1.10.0/Drivers/STM32L0xx_HAL_Driver/Src/stm32l0xx_ll_exti.c **** #else
  42:/home/tejas_tj/STM32Cube/Repository/STM32Cube_FW_L0_V1.10.0/Drivers/STM32L0xx_HAL_Driver/Src/stm32l0xx_ll_exti.c **** #define assert_param(expr) ((void)0U)
  43:/home/tejas_tj/STM32Cube/Repository/STM32Cube_FW_L0_V1.10.0/Drivers/STM32L0xx_HAL_Driver/Src/stm32l0xx_ll_exti.c **** #endif
  44:/home/tejas_tj/STM32Cube/Repository/STM32Cube_FW_L0_V1.10.0/Drivers/STM32L0xx_HAL_Driver/Src/stm32l0xx_ll_exti.c **** 
  45:/home/tejas_tj/STM32Cube/Repository/STM32Cube_FW_L0_V1.10.0/Drivers/STM32L0xx_HAL_Driver/Src/stm32l0xx_ll_exti.c **** /** @addtogroup STM32L0xx_LL_Driver
  46:/home/tejas_tj/STM32Cube/Repository/STM32Cube_FW_L0_V1.10.0/Drivers/STM32L0xx_HAL_Driver/Src/stm32l0xx_ll_exti.c ****   * @{
  47:/home/tejas_tj/STM32Cube/Repository/STM32Cube_FW_L0_V1.10.0/Drivers/STM32L0xx_HAL_Driver/Src/stm32l0xx_ll_exti.c ****   */
  48:/home/tejas_tj/STM32Cube/Repository/STM32Cube_FW_L0_V1.10.0/Drivers/STM32L0xx_HAL_Driver/Src/stm32l0xx_ll_exti.c **** 
  49:/home/tejas_tj/STM32Cube/Repository/STM32Cube_FW_L0_V1.10.0/Drivers/STM32L0xx_HAL_Driver/Src/stm32l0xx_ll_exti.c **** #if defined (EXTI)
  50:/home/tejas_tj/STM32Cube/Repository/STM32Cube_FW_L0_V1.10.0/Drivers/STM32L0xx_HAL_Driver/Src/stm32l0xx_ll_exti.c **** 
  51:/home/tejas_tj/STM32Cube/Repository/STM32Cube_FW_L0_V1.10.0/Drivers/STM32L0xx_HAL_Driver/Src/stm32l0xx_ll_exti.c **** /** @defgroup EXTI_LL EXTI
  52:/home/tejas_tj/STM32Cube/Repository/STM32Cube_FW_L0_V1.10.0/Drivers/STM32L0xx_HAL_Driver/Src/stm32l0xx_ll_exti.c ****   * @{
  53:/home/tejas_tj/STM32Cube/Repository/STM32Cube_FW_L0_V1.10.0/Drivers/STM32L0xx_HAL_Driver/Src/stm32l0xx_ll_exti.c ****   */
  54:/home/tejas_tj/STM32Cube/Repository/STM32Cube_FW_L0_V1.10.0/Drivers/STM32L0xx_HAL_Driver/Src/stm32l0xx_ll_exti.c **** 
  55:/home/tejas_tj/STM32Cube/Repository/STM32Cube_FW_L0_V1.10.0/Drivers/STM32L0xx_HAL_Driver/Src/stm32l0xx_ll_exti.c **** /* Private types -------------------------------------------------------------*/
  56:/home/tejas_tj/STM32Cube/Repository/STM32Cube_FW_L0_V1.10.0/Drivers/STM32L0xx_HAL_Driver/Src/stm32l0xx_ll_exti.c **** /* Private variables ---------------------------------------------------------*/
  57:/home/tejas_tj/STM32Cube/Repository/STM32Cube_FW_L0_V1.10.0/Drivers/STM32L0xx_HAL_Driver/Src/stm32l0xx_ll_exti.c **** /* Private constants ---------------------------------------------------------*/
  58:/home/tejas_tj/STM32Cube/Repository/STM32Cube_FW_L0_V1.10.0/Drivers/STM32L0xx_HAL_Driver/Src/stm32l0xx_ll_exti.c **** /* Private macros ------------------------------------------------------------*/
  59:/home/tejas_tj/STM32Cube/Repository/STM32Cube_FW_L0_V1.10.0/Drivers/STM32L0xx_HAL_Driver/Src/stm32l0xx_ll_exti.c **** /** @addtogroup EXTI_LL_Private_Macros
  60:/home/tejas_tj/STM32Cube/Repository/STM32Cube_FW_L0_V1.10.0/Drivers/STM32L0xx_HAL_Driver/Src/stm32l0xx_ll_exti.c ****   * @{
  61:/home/tejas_tj/STM32Cube/Repository/STM32Cube_FW_L0_V1.10.0/Drivers/STM32L0xx_HAL_Driver/Src/stm32l0xx_ll_exti.c ****   */
  62:/home/tejas_tj/STM32Cube/Repository/STM32Cube_FW_L0_V1.10.0/Drivers/STM32L0xx_HAL_Driver/Src/stm32l0xx_ll_exti.c **** 
  63:/home/tejas_tj/STM32Cube/Repository/STM32Cube_FW_L0_V1.10.0/Drivers/STM32L0xx_HAL_Driver/Src/stm32l0xx_ll_exti.c **** #define IS_LL_EXTI_LINE_0_31(__VALUE__)              (((__VALUE__) & ~LL_EXTI_LINE_ALL_0_31) == 0x0
  64:/home/tejas_tj/STM32Cube/Repository/STM32Cube_FW_L0_V1.10.0/Drivers/STM32L0xx_HAL_Driver/Src/stm32l0xx_ll_exti.c **** 
  65:/home/tejas_tj/STM32Cube/Repository/STM32Cube_FW_L0_V1.10.0/Drivers/STM32L0xx_HAL_Driver/Src/stm32l0xx_ll_exti.c **** #define IS_LL_EXTI_MODE(__VALUE__)                   (((__VALUE__) == LL_EXTI_MODE_IT)            \
  66:/home/tejas_tj/STM32Cube/Repository/STM32Cube_FW_L0_V1.10.0/Drivers/STM32L0xx_HAL_Driver/Src/stm32l0xx_ll_exti.c ****                                                    || ((__VALUE__) == LL_EXTI_MODE_EVENT)         \
  67:/home/tejas_tj/STM32Cube/Repository/STM32Cube_FW_L0_V1.10.0/Drivers/STM32L0xx_HAL_Driver/Src/stm32l0xx_ll_exti.c ****                                                    || ((__VALUE__) == LL_EXTI_MODE_IT_EVENT))
  68:/home/tejas_tj/STM32Cube/Repository/STM32Cube_FW_L0_V1.10.0/Drivers/STM32L0xx_HAL_Driver/Src/stm32l0xx_ll_exti.c **** 
  69:/home/tejas_tj/STM32Cube/Repository/STM32Cube_FW_L0_V1.10.0/Drivers/STM32L0xx_HAL_Driver/Src/stm32l0xx_ll_exti.c **** 
  70:/home/tejas_tj/STM32Cube/Repository/STM32Cube_FW_L0_V1.10.0/Drivers/STM32L0xx_HAL_Driver/Src/stm32l0xx_ll_exti.c **** #define IS_LL_EXTI_TRIGGER(__VALUE__)                (((__VALUE__) == LL_EXTI_TRIGGER_NONE)       \
  71:/home/tejas_tj/STM32Cube/Repository/STM32Cube_FW_L0_V1.10.0/Drivers/STM32L0xx_HAL_Driver/Src/stm32l0xx_ll_exti.c ****                                                    || ((__VALUE__) == LL_EXTI_TRIGGER_RISING)     \
  72:/home/tejas_tj/STM32Cube/Repository/STM32Cube_FW_L0_V1.10.0/Drivers/STM32L0xx_HAL_Driver/Src/stm32l0xx_ll_exti.c ****                                                    || ((__VALUE__) == LL_EXTI_TRIGGER_FALLING)    \
  73:/home/tejas_tj/STM32Cube/Repository/STM32Cube_FW_L0_V1.10.0/Drivers/STM32L0xx_HAL_Driver/Src/stm32l0xx_ll_exti.c ****                                                    || ((__VALUE__) == LL_EXTI_TRIGGER_RISING_FALLIN
  74:/home/tejas_tj/STM32Cube/Repository/STM32Cube_FW_L0_V1.10.0/Drivers/STM32L0xx_HAL_Driver/Src/stm32l0xx_ll_exti.c **** 
  75:/home/tejas_tj/STM32Cube/Repository/STM32Cube_FW_L0_V1.10.0/Drivers/STM32L0xx_HAL_Driver/Src/stm32l0xx_ll_exti.c **** /**
  76:/home/tejas_tj/STM32Cube/Repository/STM32Cube_FW_L0_V1.10.0/Drivers/STM32L0xx_HAL_Driver/Src/stm32l0xx_ll_exti.c ****   * @}
  77:/home/tejas_tj/STM32Cube/Repository/STM32Cube_FW_L0_V1.10.0/Drivers/STM32L0xx_HAL_Driver/Src/stm32l0xx_ll_exti.c ****   */
  78:/home/tejas_tj/STM32Cube/Repository/STM32Cube_FW_L0_V1.10.0/Drivers/STM32L0xx_HAL_Driver/Src/stm32l0xx_ll_exti.c **** 
  79:/home/tejas_tj/STM32Cube/Repository/STM32Cube_FW_L0_V1.10.0/Drivers/STM32L0xx_HAL_Driver/Src/stm32l0xx_ll_exti.c **** /* Private function prototypes -----------------------------------------------*/
  80:/home/tejas_tj/STM32Cube/Repository/STM32Cube_FW_L0_V1.10.0/Drivers/STM32L0xx_HAL_Driver/Src/stm32l0xx_ll_exti.c **** 
  81:/home/tejas_tj/STM32Cube/Repository/STM32Cube_FW_L0_V1.10.0/Drivers/STM32L0xx_HAL_Driver/Src/stm32l0xx_ll_exti.c **** /* Exported functions --------------------------------------------------------*/
  82:/home/tejas_tj/STM32Cube/Repository/STM32Cube_FW_L0_V1.10.0/Drivers/STM32L0xx_HAL_Driver/Src/stm32l0xx_ll_exti.c **** /** @addtogroup EXTI_LL_Exported_Functions
  83:/home/tejas_tj/STM32Cube/Repository/STM32Cube_FW_L0_V1.10.0/Drivers/STM32L0xx_HAL_Driver/Src/stm32l0xx_ll_exti.c ****   * @{
  84:/home/tejas_tj/STM32Cube/Repository/STM32Cube_FW_L0_V1.10.0/Drivers/STM32L0xx_HAL_Driver/Src/stm32l0xx_ll_exti.c ****   */
  85:/home/tejas_tj/STM32Cube/Repository/STM32Cube_FW_L0_V1.10.0/Drivers/STM32L0xx_HAL_Driver/Src/stm32l0xx_ll_exti.c **** 
  86:/home/tejas_tj/STM32Cube/Repository/STM32Cube_FW_L0_V1.10.0/Drivers/STM32L0xx_HAL_Driver/Src/stm32l0xx_ll_exti.c **** /** @addtogroup EXTI_LL_EF_Init
  87:/home/tejas_tj/STM32Cube/Repository/STM32Cube_FW_L0_V1.10.0/Drivers/STM32L0xx_HAL_Driver/Src/stm32l0xx_ll_exti.c ****   * @{
  88:/home/tejas_tj/STM32Cube/Repository/STM32Cube_FW_L0_V1.10.0/Drivers/STM32L0xx_HAL_Driver/Src/stm32l0xx_ll_exti.c ****   */
  89:/home/tejas_tj/STM32Cube/Repository/STM32Cube_FW_L0_V1.10.0/Drivers/STM32L0xx_HAL_Driver/Src/stm32l0xx_ll_exti.c **** 
  90:/home/tejas_tj/STM32Cube/Repository/STM32Cube_FW_L0_V1.10.0/Drivers/STM32L0xx_HAL_Driver/Src/stm32l0xx_ll_exti.c **** /**
ARM GAS  /tmp/ccUHhNY0.s 			page 3


  91:/home/tejas_tj/STM32Cube/Repository/STM32Cube_FW_L0_V1.10.0/Drivers/STM32L0xx_HAL_Driver/Src/stm32l0xx_ll_exti.c ****   * @brief  De-initialize the EXTI registers to their default reset values.
  92:/home/tejas_tj/STM32Cube/Repository/STM32Cube_FW_L0_V1.10.0/Drivers/STM32L0xx_HAL_Driver/Src/stm32l0xx_ll_exti.c ****   * @retval An ErrorStatus enumeration value:
  93:/home/tejas_tj/STM32Cube/Repository/STM32Cube_FW_L0_V1.10.0/Drivers/STM32L0xx_HAL_Driver/Src/stm32l0xx_ll_exti.c ****   *          - SUCCESS: EXTI registers are de-initialized
  94:/home/tejas_tj/STM32Cube/Repository/STM32Cube_FW_L0_V1.10.0/Drivers/STM32L0xx_HAL_Driver/Src/stm32l0xx_ll_exti.c ****   *          - ERROR: not applicable
  95:/home/tejas_tj/STM32Cube/Repository/STM32Cube_FW_L0_V1.10.0/Drivers/STM32L0xx_HAL_Driver/Src/stm32l0xx_ll_exti.c ****   */
  96:/home/tejas_tj/STM32Cube/Repository/STM32Cube_FW_L0_V1.10.0/Drivers/STM32L0xx_HAL_Driver/Src/stm32l0xx_ll_exti.c **** uint32_t LL_EXTI_DeInit(void)
  97:/home/tejas_tj/STM32Cube/Repository/STM32Cube_FW_L0_V1.10.0/Drivers/STM32L0xx_HAL_Driver/Src/stm32l0xx_ll_exti.c **** {
  26              		.loc 1 97 0
  27              		.cfi_startproc
  28              		@ args = 0, pretend = 0, frame = 0
  29              		@ frame_needed = 0, uses_anonymous_args = 0
  30              		@ link register save eliminated.
  98:/home/tejas_tj/STM32Cube/Repository/STM32Cube_FW_L0_V1.10.0/Drivers/STM32L0xx_HAL_Driver/Src/stm32l0xx_ll_exti.c ****   /* Interrupt mask register set to default reset values */
  99:/home/tejas_tj/STM32Cube/Repository/STM32Cube_FW_L0_V1.10.0/Drivers/STM32L0xx_HAL_Driver/Src/stm32l0xx_ll_exti.c ****   LL_EXTI_WriteReg(IMR,   0x3F840000U);
  31              		.loc 1 99 0
  32 0000 054B     		ldr	r3, .L2
  33 0002 064A     		ldr	r2, .L2+4
  34 0004 1A60     		str	r2, [r3]
 100:/home/tejas_tj/STM32Cube/Repository/STM32Cube_FW_L0_V1.10.0/Drivers/STM32L0xx_HAL_Driver/Src/stm32l0xx_ll_exti.c ****   /* Event mask register set to default reset values */
 101:/home/tejas_tj/STM32Cube/Repository/STM32Cube_FW_L0_V1.10.0/Drivers/STM32L0xx_HAL_Driver/Src/stm32l0xx_ll_exti.c ****   LL_EXTI_WriteReg(EMR,   0x00000000U);
  35              		.loc 1 101 0
  36 0006 0022     		movs	r2, #0
  37 0008 5A60     		str	r2, [r3, #4]
 102:/home/tejas_tj/STM32Cube/Repository/STM32Cube_FW_L0_V1.10.0/Drivers/STM32L0xx_HAL_Driver/Src/stm32l0xx_ll_exti.c ****   /* Rising Trigger selection register set to default reset values */
 103:/home/tejas_tj/STM32Cube/Repository/STM32Cube_FW_L0_V1.10.0/Drivers/STM32L0xx_HAL_Driver/Src/stm32l0xx_ll_exti.c ****   LL_EXTI_WriteReg(RTSR,  0x00000000U);
  38              		.loc 1 103 0
  39 000a 9A60     		str	r2, [r3, #8]
 104:/home/tejas_tj/STM32Cube/Repository/STM32Cube_FW_L0_V1.10.0/Drivers/STM32L0xx_HAL_Driver/Src/stm32l0xx_ll_exti.c ****   /* Falling Trigger selection register set to default reset values */
 105:/home/tejas_tj/STM32Cube/Repository/STM32Cube_FW_L0_V1.10.0/Drivers/STM32L0xx_HAL_Driver/Src/stm32l0xx_ll_exti.c ****   LL_EXTI_WriteReg(FTSR,  0x00000000U);
  40              		.loc 1 105 0
  41 000c DA60     		str	r2, [r3, #12]
 106:/home/tejas_tj/STM32Cube/Repository/STM32Cube_FW_L0_V1.10.0/Drivers/STM32L0xx_HAL_Driver/Src/stm32l0xx_ll_exti.c ****   /* Software interrupt event register set to default reset values */
 107:/home/tejas_tj/STM32Cube/Repository/STM32Cube_FW_L0_V1.10.0/Drivers/STM32L0xx_HAL_Driver/Src/stm32l0xx_ll_exti.c ****   LL_EXTI_WriteReg(SWIER, 0x00000000U);
  42              		.loc 1 107 0
  43 000e 1A61     		str	r2, [r3, #16]
 108:/home/tejas_tj/STM32Cube/Repository/STM32Cube_FW_L0_V1.10.0/Drivers/STM32L0xx_HAL_Driver/Src/stm32l0xx_ll_exti.c ****   /* Pending register set to default reset values */
 109:/home/tejas_tj/STM32Cube/Repository/STM32Cube_FW_L0_V1.10.0/Drivers/STM32L0xx_HAL_Driver/Src/stm32l0xx_ll_exti.c ****   LL_EXTI_WriteReg(PR,    0x007BFFFFU);
  44              		.loc 1 109 0
  45 0010 034A     		ldr	r2, .L2+8
  46 0012 5A61     		str	r2, [r3, #20]
 110:/home/tejas_tj/STM32Cube/Repository/STM32Cube_FW_L0_V1.10.0/Drivers/STM32L0xx_HAL_Driver/Src/stm32l0xx_ll_exti.c **** 
 111:/home/tejas_tj/STM32Cube/Repository/STM32Cube_FW_L0_V1.10.0/Drivers/STM32L0xx_HAL_Driver/Src/stm32l0xx_ll_exti.c ****   return SUCCESS;
 112:/home/tejas_tj/STM32Cube/Repository/STM32Cube_FW_L0_V1.10.0/Drivers/STM32L0xx_HAL_Driver/Src/stm32l0xx_ll_exti.c **** }
  47              		.loc 1 112 0
  48 0014 0120     		movs	r0, #1
  49              		@ sp needed
  50 0016 7047     		bx	lr
  51              	.L3:
  52              		.align	2
  53              	.L2:
  54 0018 00040140 		.word	1073808384
  55 001c 0000843F 		.word	1065615360
  56 0020 FFFF7B00 		.word	8126463
  57              		.cfi_endproc
  58              	.LFE50:
  60              		.section	.text.LL_EXTI_Init,"ax",%progbits
  61              		.align	1
ARM GAS  /tmp/ccUHhNY0.s 			page 4


  62              		.global	LL_EXTI_Init
  63              		.syntax unified
  64              		.code	16
  65              		.thumb_func
  66              		.fpu softvfp
  68              	LL_EXTI_Init:
  69              	.LFB51:
 113:/home/tejas_tj/STM32Cube/Repository/STM32Cube_FW_L0_V1.10.0/Drivers/STM32L0xx_HAL_Driver/Src/stm32l0xx_ll_exti.c **** 
 114:/home/tejas_tj/STM32Cube/Repository/STM32Cube_FW_L0_V1.10.0/Drivers/STM32L0xx_HAL_Driver/Src/stm32l0xx_ll_exti.c **** /**
 115:/home/tejas_tj/STM32Cube/Repository/STM32Cube_FW_L0_V1.10.0/Drivers/STM32L0xx_HAL_Driver/Src/stm32l0xx_ll_exti.c ****   * @brief  Initialize the EXTI registers according to the specified parameters in EXTI_InitStruct.
 116:/home/tejas_tj/STM32Cube/Repository/STM32Cube_FW_L0_V1.10.0/Drivers/STM32L0xx_HAL_Driver/Src/stm32l0xx_ll_exti.c ****   * @param  EXTI_InitStruct pointer to a @ref LL_EXTI_InitTypeDef structure.
 117:/home/tejas_tj/STM32Cube/Repository/STM32Cube_FW_L0_V1.10.0/Drivers/STM32L0xx_HAL_Driver/Src/stm32l0xx_ll_exti.c ****   * @retval An ErrorStatus enumeration value:
 118:/home/tejas_tj/STM32Cube/Repository/STM32Cube_FW_L0_V1.10.0/Drivers/STM32L0xx_HAL_Driver/Src/stm32l0xx_ll_exti.c ****   *          - SUCCESS: EXTI registers are initialized
 119:/home/tejas_tj/STM32Cube/Repository/STM32Cube_FW_L0_V1.10.0/Drivers/STM32L0xx_HAL_Driver/Src/stm32l0xx_ll_exti.c ****   *          - ERROR: not applicable
 120:/home/tejas_tj/STM32Cube/Repository/STM32Cube_FW_L0_V1.10.0/Drivers/STM32L0xx_HAL_Driver/Src/stm32l0xx_ll_exti.c ****   */
 121:/home/tejas_tj/STM32Cube/Repository/STM32Cube_FW_L0_V1.10.0/Drivers/STM32L0xx_HAL_Driver/Src/stm32l0xx_ll_exti.c **** uint32_t LL_EXTI_Init(LL_EXTI_InitTypeDef *EXTI_InitStruct)
 122:/home/tejas_tj/STM32Cube/Repository/STM32Cube_FW_L0_V1.10.0/Drivers/STM32L0xx_HAL_Driver/Src/stm32l0xx_ll_exti.c **** {
  70              		.loc 1 122 0
  71              		.cfi_startproc
  72              		@ args = 0, pretend = 0, frame = 0
  73              		@ frame_needed = 0, uses_anonymous_args = 0
  74              	.LVL0:
  75 0000 10B5     		push	{r4, lr}
  76              	.LCFI0:
  77              		.cfi_def_cfa_offset 8
  78              		.cfi_offset 4, -8
  79              		.cfi_offset 14, -4
  80              	.LVL1:
 123:/home/tejas_tj/STM32Cube/Repository/STM32Cube_FW_L0_V1.10.0/Drivers/STM32L0xx_HAL_Driver/Src/stm32l0xx_ll_exti.c ****   ErrorStatus status = SUCCESS;
 124:/home/tejas_tj/STM32Cube/Repository/STM32Cube_FW_L0_V1.10.0/Drivers/STM32L0xx_HAL_Driver/Src/stm32l0xx_ll_exti.c ****   /* Check the parameters */
 125:/home/tejas_tj/STM32Cube/Repository/STM32Cube_FW_L0_V1.10.0/Drivers/STM32L0xx_HAL_Driver/Src/stm32l0xx_ll_exti.c ****   assert_param(IS_LL_EXTI_LINE_0_31(EXTI_InitStruct->Line_0_31));
 126:/home/tejas_tj/STM32Cube/Repository/STM32Cube_FW_L0_V1.10.0/Drivers/STM32L0xx_HAL_Driver/Src/stm32l0xx_ll_exti.c ****   assert_param(IS_FUNCTIONAL_STATE(EXTI_InitStruct->LineCommand));
 127:/home/tejas_tj/STM32Cube/Repository/STM32Cube_FW_L0_V1.10.0/Drivers/STM32L0xx_HAL_Driver/Src/stm32l0xx_ll_exti.c ****   assert_param(IS_LL_EXTI_MODE(EXTI_InitStruct->Mode));
 128:/home/tejas_tj/STM32Cube/Repository/STM32Cube_FW_L0_V1.10.0/Drivers/STM32L0xx_HAL_Driver/Src/stm32l0xx_ll_exti.c **** 
 129:/home/tejas_tj/STM32Cube/Repository/STM32Cube_FW_L0_V1.10.0/Drivers/STM32L0xx_HAL_Driver/Src/stm32l0xx_ll_exti.c ****   /* ENABLE LineCommand */
 130:/home/tejas_tj/STM32Cube/Repository/STM32Cube_FW_L0_V1.10.0/Drivers/STM32L0xx_HAL_Driver/Src/stm32l0xx_ll_exti.c ****   if (EXTI_InitStruct->LineCommand != DISABLE)
  81              		.loc 1 130 0
  82 0002 0379     		ldrb	r3, [r0, #4]
  83 0004 002B     		cmp	r3, #0
  84 0006 51D0     		beq	.L5
 131:/home/tejas_tj/STM32Cube/Repository/STM32Cube_FW_L0_V1.10.0/Drivers/STM32L0xx_HAL_Driver/Src/stm32l0xx_ll_exti.c ****   {
 132:/home/tejas_tj/STM32Cube/Repository/STM32Cube_FW_L0_V1.10.0/Drivers/STM32L0xx_HAL_Driver/Src/stm32l0xx_ll_exti.c ****     assert_param(IS_LL_EXTI_TRIGGER(EXTI_InitStruct->Trigger));
 133:/home/tejas_tj/STM32Cube/Repository/STM32Cube_FW_L0_V1.10.0/Drivers/STM32L0xx_HAL_Driver/Src/stm32l0xx_ll_exti.c **** 
 134:/home/tejas_tj/STM32Cube/Repository/STM32Cube_FW_L0_V1.10.0/Drivers/STM32L0xx_HAL_Driver/Src/stm32l0xx_ll_exti.c ****     /* Configure EXTI Lines in range from 0 to 31 */
 135:/home/tejas_tj/STM32Cube/Repository/STM32Cube_FW_L0_V1.10.0/Drivers/STM32L0xx_HAL_Driver/Src/stm32l0xx_ll_exti.c ****     if (EXTI_InitStruct->Line_0_31 != LL_EXTI_LINE_NONE)
  85              		.loc 1 135 0
  86 0008 0368     		ldr	r3, [r0]
  87 000a 002B     		cmp	r3, #0
  88 000c 5AD0     		beq	.L14
 136:/home/tejas_tj/STM32Cube/Repository/STM32Cube_FW_L0_V1.10.0/Drivers/STM32L0xx_HAL_Driver/Src/stm32l0xx_ll_exti.c ****     {
 137:/home/tejas_tj/STM32Cube/Repository/STM32Cube_FW_L0_V1.10.0/Drivers/STM32L0xx_HAL_Driver/Src/stm32l0xx_ll_exti.c ****       switch (EXTI_InitStruct->Mode)
  89              		.loc 1 137 0
  90 000e 4279     		ldrb	r2, [r0, #5]
  91 0010 012A     		cmp	r2, #1
  92 0012 19D0     		beq	.L8
  93 0014 002A     		cmp	r2, #0
  94 0016 0DD0     		beq	.L9
ARM GAS  /tmp/ccUHhNY0.s 			page 5


  95 0018 022A     		cmp	r2, #2
  96 001a 1FD0     		beq	.L10
 138:/home/tejas_tj/STM32Cube/Repository/STM32Cube_FW_L0_V1.10.0/Drivers/STM32L0xx_HAL_Driver/Src/stm32l0xx_ll_exti.c ****       {
 139:/home/tejas_tj/STM32Cube/Repository/STM32Cube_FW_L0_V1.10.0/Drivers/STM32L0xx_HAL_Driver/Src/stm32l0xx_ll_exti.c ****         case LL_EXTI_MODE_IT:
 140:/home/tejas_tj/STM32Cube/Repository/STM32Cube_FW_L0_V1.10.0/Drivers/STM32L0xx_HAL_Driver/Src/stm32l0xx_ll_exti.c ****           /* First Disable Event on provided Lines */
 141:/home/tejas_tj/STM32Cube/Repository/STM32Cube_FW_L0_V1.10.0/Drivers/STM32L0xx_HAL_Driver/Src/stm32l0xx_ll_exti.c ****           LL_EXTI_DisableEvent_0_31(EXTI_InitStruct->Line_0_31);
 142:/home/tejas_tj/STM32Cube/Repository/STM32Cube_FW_L0_V1.10.0/Drivers/STM32L0xx_HAL_Driver/Src/stm32l0xx_ll_exti.c ****           /* Then Enable IT on provided Lines */
 143:/home/tejas_tj/STM32Cube/Repository/STM32Cube_FW_L0_V1.10.0/Drivers/STM32L0xx_HAL_Driver/Src/stm32l0xx_ll_exti.c ****           LL_EXTI_EnableIT_0_31(EXTI_InitStruct->Line_0_31);
 144:/home/tejas_tj/STM32Cube/Repository/STM32Cube_FW_L0_V1.10.0/Drivers/STM32L0xx_HAL_Driver/Src/stm32l0xx_ll_exti.c ****           break;
 145:/home/tejas_tj/STM32Cube/Repository/STM32Cube_FW_L0_V1.10.0/Drivers/STM32L0xx_HAL_Driver/Src/stm32l0xx_ll_exti.c ****         case LL_EXTI_MODE_EVENT:
 146:/home/tejas_tj/STM32Cube/Repository/STM32Cube_FW_L0_V1.10.0/Drivers/STM32L0xx_HAL_Driver/Src/stm32l0xx_ll_exti.c ****           /* First Disable IT on provided Lines */
 147:/home/tejas_tj/STM32Cube/Repository/STM32Cube_FW_L0_V1.10.0/Drivers/STM32L0xx_HAL_Driver/Src/stm32l0xx_ll_exti.c ****           LL_EXTI_DisableIT_0_31(EXTI_InitStruct->Line_0_31);
 148:/home/tejas_tj/STM32Cube/Repository/STM32Cube_FW_L0_V1.10.0/Drivers/STM32L0xx_HAL_Driver/Src/stm32l0xx_ll_exti.c ****           /* Then Enable Event on provided Lines */
 149:/home/tejas_tj/STM32Cube/Repository/STM32Cube_FW_L0_V1.10.0/Drivers/STM32L0xx_HAL_Driver/Src/stm32l0xx_ll_exti.c ****           LL_EXTI_EnableEvent_0_31(EXTI_InitStruct->Line_0_31);
 150:/home/tejas_tj/STM32Cube/Repository/STM32Cube_FW_L0_V1.10.0/Drivers/STM32L0xx_HAL_Driver/Src/stm32l0xx_ll_exti.c ****           break;
 151:/home/tejas_tj/STM32Cube/Repository/STM32Cube_FW_L0_V1.10.0/Drivers/STM32L0xx_HAL_Driver/Src/stm32l0xx_ll_exti.c ****         case LL_EXTI_MODE_IT_EVENT:
 152:/home/tejas_tj/STM32Cube/Repository/STM32Cube_FW_L0_V1.10.0/Drivers/STM32L0xx_HAL_Driver/Src/stm32l0xx_ll_exti.c ****           /* Directly Enable IT & Event on provided Lines */
 153:/home/tejas_tj/STM32Cube/Repository/STM32Cube_FW_L0_V1.10.0/Drivers/STM32L0xx_HAL_Driver/Src/stm32l0xx_ll_exti.c ****           LL_EXTI_EnableIT_0_31(EXTI_InitStruct->Line_0_31);
 154:/home/tejas_tj/STM32Cube/Repository/STM32Cube_FW_L0_V1.10.0/Drivers/STM32L0xx_HAL_Driver/Src/stm32l0xx_ll_exti.c ****           LL_EXTI_EnableEvent_0_31(EXTI_InitStruct->Line_0_31);
 155:/home/tejas_tj/STM32Cube/Repository/STM32Cube_FW_L0_V1.10.0/Drivers/STM32L0xx_HAL_Driver/Src/stm32l0xx_ll_exti.c ****           break;
 156:/home/tejas_tj/STM32Cube/Repository/STM32Cube_FW_L0_V1.10.0/Drivers/STM32L0xx_HAL_Driver/Src/stm32l0xx_ll_exti.c ****         default:
 157:/home/tejas_tj/STM32Cube/Repository/STM32Cube_FW_L0_V1.10.0/Drivers/STM32L0xx_HAL_Driver/Src/stm32l0xx_ll_exti.c ****           status = ERROR;
  97              		.loc 1 157 0
  98 001c 0023     		movs	r3, #0
  99              	.L7:
 100              	.LVL2:
 158:/home/tejas_tj/STM32Cube/Repository/STM32Cube_FW_L0_V1.10.0/Drivers/STM32L0xx_HAL_Driver/Src/stm32l0xx_ll_exti.c ****           break;
 159:/home/tejas_tj/STM32Cube/Repository/STM32Cube_FW_L0_V1.10.0/Drivers/STM32L0xx_HAL_Driver/Src/stm32l0xx_ll_exti.c ****       }
 160:/home/tejas_tj/STM32Cube/Repository/STM32Cube_FW_L0_V1.10.0/Drivers/STM32L0xx_HAL_Driver/Src/stm32l0xx_ll_exti.c ****       if (EXTI_InitStruct->Trigger != LL_EXTI_TRIGGER_NONE)
 101              		.loc 1 160 0
 102 001e 8279     		ldrb	r2, [r0, #6]
 103 0020 002A     		cmp	r2, #0
 104 0022 4DD0     		beq	.L6
 161:/home/tejas_tj/STM32Cube/Repository/STM32Cube_FW_L0_V1.10.0/Drivers/STM32L0xx_HAL_Driver/Src/stm32l0xx_ll_exti.c ****       {
 162:/home/tejas_tj/STM32Cube/Repository/STM32Cube_FW_L0_V1.10.0/Drivers/STM32L0xx_HAL_Driver/Src/stm32l0xx_ll_exti.c ****         switch (EXTI_InitStruct->Trigger)
 105              		.loc 1 162 0
 106 0024 022A     		cmp	r2, #2
 107 0026 2DD0     		beq	.L11
 108 0028 032A     		cmp	r2, #3
 109 002a 35D0     		beq	.L12
 110 002c 012A     		cmp	r2, #1
 111 002e 1FD0     		beq	.L19
 163:/home/tejas_tj/STM32Cube/Repository/STM32Cube_FW_L0_V1.10.0/Drivers/STM32L0xx_HAL_Driver/Src/stm32l0xx_ll_exti.c ****         {
 164:/home/tejas_tj/STM32Cube/Repository/STM32Cube_FW_L0_V1.10.0/Drivers/STM32L0xx_HAL_Driver/Src/stm32l0xx_ll_exti.c ****           case LL_EXTI_TRIGGER_RISING:
 165:/home/tejas_tj/STM32Cube/Repository/STM32Cube_FW_L0_V1.10.0/Drivers/STM32L0xx_HAL_Driver/Src/stm32l0xx_ll_exti.c ****             /* First Disable Falling Trigger on provided Lines */
 166:/home/tejas_tj/STM32Cube/Repository/STM32Cube_FW_L0_V1.10.0/Drivers/STM32L0xx_HAL_Driver/Src/stm32l0xx_ll_exti.c ****             LL_EXTI_DisableFallingTrig_0_31(EXTI_InitStruct->Line_0_31);
 167:/home/tejas_tj/STM32Cube/Repository/STM32Cube_FW_L0_V1.10.0/Drivers/STM32L0xx_HAL_Driver/Src/stm32l0xx_ll_exti.c ****             /* Then Enable Rising Trigger on provided Lines */
 168:/home/tejas_tj/STM32Cube/Repository/STM32Cube_FW_L0_V1.10.0/Drivers/STM32L0xx_HAL_Driver/Src/stm32l0xx_ll_exti.c ****             LL_EXTI_EnableRisingTrig_0_31(EXTI_InitStruct->Line_0_31);
 169:/home/tejas_tj/STM32Cube/Repository/STM32Cube_FW_L0_V1.10.0/Drivers/STM32L0xx_HAL_Driver/Src/stm32l0xx_ll_exti.c ****             break;
 170:/home/tejas_tj/STM32Cube/Repository/STM32Cube_FW_L0_V1.10.0/Drivers/STM32L0xx_HAL_Driver/Src/stm32l0xx_ll_exti.c ****           case LL_EXTI_TRIGGER_FALLING:
 171:/home/tejas_tj/STM32Cube/Repository/STM32Cube_FW_L0_V1.10.0/Drivers/STM32L0xx_HAL_Driver/Src/stm32l0xx_ll_exti.c ****             /* First Disable Rising Trigger on provided Lines */
 172:/home/tejas_tj/STM32Cube/Repository/STM32Cube_FW_L0_V1.10.0/Drivers/STM32L0xx_HAL_Driver/Src/stm32l0xx_ll_exti.c ****             LL_EXTI_DisableRisingTrig_0_31(EXTI_InitStruct->Line_0_31);
 173:/home/tejas_tj/STM32Cube/Repository/STM32Cube_FW_L0_V1.10.0/Drivers/STM32L0xx_HAL_Driver/Src/stm32l0xx_ll_exti.c ****             /* Then Enable Falling Trigger on provided Lines */
 174:/home/tejas_tj/STM32Cube/Repository/STM32Cube_FW_L0_V1.10.0/Drivers/STM32L0xx_HAL_Driver/Src/stm32l0xx_ll_exti.c ****             LL_EXTI_EnableFallingTrig_0_31(EXTI_InitStruct->Line_0_31);
 175:/home/tejas_tj/STM32Cube/Repository/STM32Cube_FW_L0_V1.10.0/Drivers/STM32L0xx_HAL_Driver/Src/stm32l0xx_ll_exti.c ****             break;
 176:/home/tejas_tj/STM32Cube/Repository/STM32Cube_FW_L0_V1.10.0/Drivers/STM32L0xx_HAL_Driver/Src/stm32l0xx_ll_exti.c ****           case LL_EXTI_TRIGGER_RISING_FALLING:
 177:/home/tejas_tj/STM32Cube/Repository/STM32Cube_FW_L0_V1.10.0/Drivers/STM32L0xx_HAL_Driver/Src/stm32l0xx_ll_exti.c ****             LL_EXTI_EnableRisingTrig_0_31(EXTI_InitStruct->Line_0_31);
ARM GAS  /tmp/ccUHhNY0.s 			page 6


 178:/home/tejas_tj/STM32Cube/Repository/STM32Cube_FW_L0_V1.10.0/Drivers/STM32L0xx_HAL_Driver/Src/stm32l0xx_ll_exti.c ****             LL_EXTI_EnableFallingTrig_0_31(EXTI_InitStruct->Line_0_31);
 179:/home/tejas_tj/STM32Cube/Repository/STM32Cube_FW_L0_V1.10.0/Drivers/STM32L0xx_HAL_Driver/Src/stm32l0xx_ll_exti.c ****             break;
 180:/home/tejas_tj/STM32Cube/Repository/STM32Cube_FW_L0_V1.10.0/Drivers/STM32L0xx_HAL_Driver/Src/stm32l0xx_ll_exti.c ****           default:
 181:/home/tejas_tj/STM32Cube/Repository/STM32Cube_FW_L0_V1.10.0/Drivers/STM32L0xx_HAL_Driver/Src/stm32l0xx_ll_exti.c ****             status = ERROR;
 112              		.loc 1 181 0
 113 0030 0023     		movs	r3, #0
 114              	.LVL3:
 115 0032 45E0     		b	.L6
 116              	.LVL4:
 117              	.L9:
 118              	.LBB30:
 119              	.LBB31:
 120              		.file 2 "/home/tejas_tj/STM32Cube/Repository/STM32Cube_FW_L0_V1.10.0/Drivers/STM32L0xx_HAL_Driver/
   1:/home/tejas_tj/STM32Cube/Repository/STM32Cube_FW_L0_V1.10.0/Drivers/STM32L0xx_HAL_Driver/Inc/stm32l0xx_ll_exti.h **** /**
   2:/home/tejas_tj/STM32Cube/Repository/STM32Cube_FW_L0_V1.10.0/Drivers/STM32L0xx_HAL_Driver/Inc/stm32l0xx_ll_exti.h ****   ******************************************************************************
   3:/home/tejas_tj/STM32Cube/Repository/STM32Cube_FW_L0_V1.10.0/Drivers/STM32L0xx_HAL_Driver/Inc/stm32l0xx_ll_exti.h ****   * @file    stm32l0xx_ll_exti.h
   4:/home/tejas_tj/STM32Cube/Repository/STM32Cube_FW_L0_V1.10.0/Drivers/STM32L0xx_HAL_Driver/Inc/stm32l0xx_ll_exti.h ****   * @author  MCD Application Team
   5:/home/tejas_tj/STM32Cube/Repository/STM32Cube_FW_L0_V1.10.0/Drivers/STM32L0xx_HAL_Driver/Inc/stm32l0xx_ll_exti.h ****   * @brief   Header file of EXTI LL module.
   6:/home/tejas_tj/STM32Cube/Repository/STM32Cube_FW_L0_V1.10.0/Drivers/STM32L0xx_HAL_Driver/Inc/stm32l0xx_ll_exti.h ****   ******************************************************************************
   7:/home/tejas_tj/STM32Cube/Repository/STM32Cube_FW_L0_V1.10.0/Drivers/STM32L0xx_HAL_Driver/Inc/stm32l0xx_ll_exti.h ****   * @attention
   8:/home/tejas_tj/STM32Cube/Repository/STM32Cube_FW_L0_V1.10.0/Drivers/STM32L0xx_HAL_Driver/Inc/stm32l0xx_ll_exti.h ****   *
   9:/home/tejas_tj/STM32Cube/Repository/STM32Cube_FW_L0_V1.10.0/Drivers/STM32L0xx_HAL_Driver/Inc/stm32l0xx_ll_exti.h ****   * <h2><center>&copy; COPYRIGHT(c) 2016 STMicroelectronics</center></h2>
  10:/home/tejas_tj/STM32Cube/Repository/STM32Cube_FW_L0_V1.10.0/Drivers/STM32L0xx_HAL_Driver/Inc/stm32l0xx_ll_exti.h ****   *
  11:/home/tejas_tj/STM32Cube/Repository/STM32Cube_FW_L0_V1.10.0/Drivers/STM32L0xx_HAL_Driver/Inc/stm32l0xx_ll_exti.h ****   * Redistribution and use in source and binary forms, with or without modification,
  12:/home/tejas_tj/STM32Cube/Repository/STM32Cube_FW_L0_V1.10.0/Drivers/STM32L0xx_HAL_Driver/Inc/stm32l0xx_ll_exti.h ****   * are permitted provided that the following conditions are met:
  13:/home/tejas_tj/STM32Cube/Repository/STM32Cube_FW_L0_V1.10.0/Drivers/STM32L0xx_HAL_Driver/Inc/stm32l0xx_ll_exti.h ****   *   1. Redistributions of source code must retain the above copyright notice,
  14:/home/tejas_tj/STM32Cube/Repository/STM32Cube_FW_L0_V1.10.0/Drivers/STM32L0xx_HAL_Driver/Inc/stm32l0xx_ll_exti.h ****   *      this list of conditions and the following disclaimer.
  15:/home/tejas_tj/STM32Cube/Repository/STM32Cube_FW_L0_V1.10.0/Drivers/STM32L0xx_HAL_Driver/Inc/stm32l0xx_ll_exti.h ****   *   2. Redistributions in binary form must reproduce the above copyright notice,
  16:/home/tejas_tj/STM32Cube/Repository/STM32Cube_FW_L0_V1.10.0/Drivers/STM32L0xx_HAL_Driver/Inc/stm32l0xx_ll_exti.h ****   *      this list of conditions and the following disclaimer in the documentation
  17:/home/tejas_tj/STM32Cube/Repository/STM32Cube_FW_L0_V1.10.0/Drivers/STM32L0xx_HAL_Driver/Inc/stm32l0xx_ll_exti.h ****   *      and/or other materials provided with the distribution.
  18:/home/tejas_tj/STM32Cube/Repository/STM32Cube_FW_L0_V1.10.0/Drivers/STM32L0xx_HAL_Driver/Inc/stm32l0xx_ll_exti.h ****   *   3. Neither the name of STMicroelectronics nor the names of its contributors
  19:/home/tejas_tj/STM32Cube/Repository/STM32Cube_FW_L0_V1.10.0/Drivers/STM32L0xx_HAL_Driver/Inc/stm32l0xx_ll_exti.h ****   *      may be used to endorse or promote products derived from this software
  20:/home/tejas_tj/STM32Cube/Repository/STM32Cube_FW_L0_V1.10.0/Drivers/STM32L0xx_HAL_Driver/Inc/stm32l0xx_ll_exti.h ****   *      without specific prior written permission.
  21:/home/tejas_tj/STM32Cube/Repository/STM32Cube_FW_L0_V1.10.0/Drivers/STM32L0xx_HAL_Driver/Inc/stm32l0xx_ll_exti.h ****   *
  22:/home/tejas_tj/STM32Cube/Repository/STM32Cube_FW_L0_V1.10.0/Drivers/STM32L0xx_HAL_Driver/Inc/stm32l0xx_ll_exti.h ****   * THIS SOFTWARE IS PROVIDED BY THE COPYRIGHT HOLDERS AND CONTRIBUTORS "AS IS"
  23:/home/tejas_tj/STM32Cube/Repository/STM32Cube_FW_L0_V1.10.0/Drivers/STM32L0xx_HAL_Driver/Inc/stm32l0xx_ll_exti.h ****   * AND ANY EXPRESS OR IMPLIED WARRANTIES, INCLUDING, BUT NOT LIMITED TO, THE
  24:/home/tejas_tj/STM32Cube/Repository/STM32Cube_FW_L0_V1.10.0/Drivers/STM32L0xx_HAL_Driver/Inc/stm32l0xx_ll_exti.h ****   * IMPLIED WARRANTIES OF MERCHANTABILITY AND FITNESS FOR A PARTICULAR PURPOSE ARE
  25:/home/tejas_tj/STM32Cube/Repository/STM32Cube_FW_L0_V1.10.0/Drivers/STM32L0xx_HAL_Driver/Inc/stm32l0xx_ll_exti.h ****   * DISCLAIMED. IN NO EVENT SHALL THE COPYRIGHT HOLDER OR CONTRIBUTORS BE LIABLE
  26:/home/tejas_tj/STM32Cube/Repository/STM32Cube_FW_L0_V1.10.0/Drivers/STM32L0xx_HAL_Driver/Inc/stm32l0xx_ll_exti.h ****   * FOR ANY DIRECT, INDIRECT, INCIDENTAL, SPECIAL, EXEMPLARY, OR CONSEQUENTIAL
  27:/home/tejas_tj/STM32Cube/Repository/STM32Cube_FW_L0_V1.10.0/Drivers/STM32L0xx_HAL_Driver/Inc/stm32l0xx_ll_exti.h ****   * DAMAGES (INCLUDING, BUT NOT LIMITED TO, PROCUREMENT OF SUBSTITUTE GOODS OR
  28:/home/tejas_tj/STM32Cube/Repository/STM32Cube_FW_L0_V1.10.0/Drivers/STM32L0xx_HAL_Driver/Inc/stm32l0xx_ll_exti.h ****   * SERVICES; LOSS OF USE, DATA, OR PROFITS; OR BUSINESS INTERRUPTION) HOWEVER
  29:/home/tejas_tj/STM32Cube/Repository/STM32Cube_FW_L0_V1.10.0/Drivers/STM32L0xx_HAL_Driver/Inc/stm32l0xx_ll_exti.h ****   * CAUSED AND ON ANY THEORY OF LIABILITY, WHETHER IN CONTRACT, STRICT LIABILITY,
  30:/home/tejas_tj/STM32Cube/Repository/STM32Cube_FW_L0_V1.10.0/Drivers/STM32L0xx_HAL_Driver/Inc/stm32l0xx_ll_exti.h ****   * OR TORT (INCLUDING NEGLIGENCE OR OTHERWISE) ARISING IN ANY WAY OUT OF THE USE
  31:/home/tejas_tj/STM32Cube/Repository/STM32Cube_FW_L0_V1.10.0/Drivers/STM32L0xx_HAL_Driver/Inc/stm32l0xx_ll_exti.h ****   * OF THIS SOFTWARE, EVEN IF ADVISED OF THE POSSIBILITY OF SUCH DAMAGE.
  32:/home/tejas_tj/STM32Cube/Repository/STM32Cube_FW_L0_V1.10.0/Drivers/STM32L0xx_HAL_Driver/Inc/stm32l0xx_ll_exti.h ****   *
  33:/home/tejas_tj/STM32Cube/Repository/STM32Cube_FW_L0_V1.10.0/Drivers/STM32L0xx_HAL_Driver/Inc/stm32l0xx_ll_exti.h ****   ******************************************************************************
  34:/home/tejas_tj/STM32Cube/Repository/STM32Cube_FW_L0_V1.10.0/Drivers/STM32L0xx_HAL_Driver/Inc/stm32l0xx_ll_exti.h ****   */
  35:/home/tejas_tj/STM32Cube/Repository/STM32Cube_FW_L0_V1.10.0/Drivers/STM32L0xx_HAL_Driver/Inc/stm32l0xx_ll_exti.h **** 
  36:/home/tejas_tj/STM32Cube/Repository/STM32Cube_FW_L0_V1.10.0/Drivers/STM32L0xx_HAL_Driver/Inc/stm32l0xx_ll_exti.h **** /* Define to prevent recursive inclusion -------------------------------------*/
  37:/home/tejas_tj/STM32Cube/Repository/STM32Cube_FW_L0_V1.10.0/Drivers/STM32L0xx_HAL_Driver/Inc/stm32l0xx_ll_exti.h **** #ifndef __STM32L0xx_LL_EXTI_H
  38:/home/tejas_tj/STM32Cube/Repository/STM32Cube_FW_L0_V1.10.0/Drivers/STM32L0xx_HAL_Driver/Inc/stm32l0xx_ll_exti.h **** #define __STM32L0xx_LL_EXTI_H
  39:/home/tejas_tj/STM32Cube/Repository/STM32Cube_FW_L0_V1.10.0/Drivers/STM32L0xx_HAL_Driver/Inc/stm32l0xx_ll_exti.h **** 
  40:/home/tejas_tj/STM32Cube/Repository/STM32Cube_FW_L0_V1.10.0/Drivers/STM32L0xx_HAL_Driver/Inc/stm32l0xx_ll_exti.h **** #ifdef __cplusplus
  41:/home/tejas_tj/STM32Cube/Repository/STM32Cube_FW_L0_V1.10.0/Drivers/STM32L0xx_HAL_Driver/Inc/stm32l0xx_ll_exti.h **** extern "C" {
  42:/home/tejas_tj/STM32Cube/Repository/STM32Cube_FW_L0_V1.10.0/Drivers/STM32L0xx_HAL_Driver/Inc/stm32l0xx_ll_exti.h **** #endif
  43:/home/tejas_tj/STM32Cube/Repository/STM32Cube_FW_L0_V1.10.0/Drivers/STM32L0xx_HAL_Driver/Inc/stm32l0xx_ll_exti.h **** 
  44:/home/tejas_tj/STM32Cube/Repository/STM32Cube_FW_L0_V1.10.0/Drivers/STM32L0xx_HAL_Driver/Inc/stm32l0xx_ll_exti.h **** /* Includes ------------------------------------------------------------------*/
ARM GAS  /tmp/ccUHhNY0.s 			page 7


  45:/home/tejas_tj/STM32Cube/Repository/STM32Cube_FW_L0_V1.10.0/Drivers/STM32L0xx_HAL_Driver/Inc/stm32l0xx_ll_exti.h **** #include "stm32l0xx.h"
  46:/home/tejas_tj/STM32Cube/Repository/STM32Cube_FW_L0_V1.10.0/Drivers/STM32L0xx_HAL_Driver/Inc/stm32l0xx_ll_exti.h **** 
  47:/home/tejas_tj/STM32Cube/Repository/STM32Cube_FW_L0_V1.10.0/Drivers/STM32L0xx_HAL_Driver/Inc/stm32l0xx_ll_exti.h **** /** @addtogroup STM32L0xx_LL_Driver
  48:/home/tejas_tj/STM32Cube/Repository/STM32Cube_FW_L0_V1.10.0/Drivers/STM32L0xx_HAL_Driver/Inc/stm32l0xx_ll_exti.h ****   * @{
  49:/home/tejas_tj/STM32Cube/Repository/STM32Cube_FW_L0_V1.10.0/Drivers/STM32L0xx_HAL_Driver/Inc/stm32l0xx_ll_exti.h ****   */
  50:/home/tejas_tj/STM32Cube/Repository/STM32Cube_FW_L0_V1.10.0/Drivers/STM32L0xx_HAL_Driver/Inc/stm32l0xx_ll_exti.h **** 
  51:/home/tejas_tj/STM32Cube/Repository/STM32Cube_FW_L0_V1.10.0/Drivers/STM32L0xx_HAL_Driver/Inc/stm32l0xx_ll_exti.h **** #if defined (EXTI)
  52:/home/tejas_tj/STM32Cube/Repository/STM32Cube_FW_L0_V1.10.0/Drivers/STM32L0xx_HAL_Driver/Inc/stm32l0xx_ll_exti.h **** 
  53:/home/tejas_tj/STM32Cube/Repository/STM32Cube_FW_L0_V1.10.0/Drivers/STM32L0xx_HAL_Driver/Inc/stm32l0xx_ll_exti.h **** /** @defgroup EXTI_LL EXTI
  54:/home/tejas_tj/STM32Cube/Repository/STM32Cube_FW_L0_V1.10.0/Drivers/STM32L0xx_HAL_Driver/Inc/stm32l0xx_ll_exti.h ****   * @{
  55:/home/tejas_tj/STM32Cube/Repository/STM32Cube_FW_L0_V1.10.0/Drivers/STM32L0xx_HAL_Driver/Inc/stm32l0xx_ll_exti.h ****   */
  56:/home/tejas_tj/STM32Cube/Repository/STM32Cube_FW_L0_V1.10.0/Drivers/STM32L0xx_HAL_Driver/Inc/stm32l0xx_ll_exti.h **** 
  57:/home/tejas_tj/STM32Cube/Repository/STM32Cube_FW_L0_V1.10.0/Drivers/STM32L0xx_HAL_Driver/Inc/stm32l0xx_ll_exti.h **** /* Private types -------------------------------------------------------------*/
  58:/home/tejas_tj/STM32Cube/Repository/STM32Cube_FW_L0_V1.10.0/Drivers/STM32L0xx_HAL_Driver/Inc/stm32l0xx_ll_exti.h **** /* Private variables ---------------------------------------------------------*/
  59:/home/tejas_tj/STM32Cube/Repository/STM32Cube_FW_L0_V1.10.0/Drivers/STM32L0xx_HAL_Driver/Inc/stm32l0xx_ll_exti.h **** /* Private constants ---------------------------------------------------------*/
  60:/home/tejas_tj/STM32Cube/Repository/STM32Cube_FW_L0_V1.10.0/Drivers/STM32L0xx_HAL_Driver/Inc/stm32l0xx_ll_exti.h **** /* Private Macros ------------------------------------------------------------*/
  61:/home/tejas_tj/STM32Cube/Repository/STM32Cube_FW_L0_V1.10.0/Drivers/STM32L0xx_HAL_Driver/Inc/stm32l0xx_ll_exti.h **** #if defined(USE_FULL_LL_DRIVER)
  62:/home/tejas_tj/STM32Cube/Repository/STM32Cube_FW_L0_V1.10.0/Drivers/STM32L0xx_HAL_Driver/Inc/stm32l0xx_ll_exti.h **** /** @defgroup EXTI_LL_Private_Macros EXTI Private Macros
  63:/home/tejas_tj/STM32Cube/Repository/STM32Cube_FW_L0_V1.10.0/Drivers/STM32L0xx_HAL_Driver/Inc/stm32l0xx_ll_exti.h ****   * @{
  64:/home/tejas_tj/STM32Cube/Repository/STM32Cube_FW_L0_V1.10.0/Drivers/STM32L0xx_HAL_Driver/Inc/stm32l0xx_ll_exti.h ****   */
  65:/home/tejas_tj/STM32Cube/Repository/STM32Cube_FW_L0_V1.10.0/Drivers/STM32L0xx_HAL_Driver/Inc/stm32l0xx_ll_exti.h **** /**
  66:/home/tejas_tj/STM32Cube/Repository/STM32Cube_FW_L0_V1.10.0/Drivers/STM32L0xx_HAL_Driver/Inc/stm32l0xx_ll_exti.h ****   * @}
  67:/home/tejas_tj/STM32Cube/Repository/STM32Cube_FW_L0_V1.10.0/Drivers/STM32L0xx_HAL_Driver/Inc/stm32l0xx_ll_exti.h ****   */
  68:/home/tejas_tj/STM32Cube/Repository/STM32Cube_FW_L0_V1.10.0/Drivers/STM32L0xx_HAL_Driver/Inc/stm32l0xx_ll_exti.h **** #endif /*USE_FULL_LL_DRIVER*/
  69:/home/tejas_tj/STM32Cube/Repository/STM32Cube_FW_L0_V1.10.0/Drivers/STM32L0xx_HAL_Driver/Inc/stm32l0xx_ll_exti.h **** /* Exported types ------------------------------------------------------------*/
  70:/home/tejas_tj/STM32Cube/Repository/STM32Cube_FW_L0_V1.10.0/Drivers/STM32L0xx_HAL_Driver/Inc/stm32l0xx_ll_exti.h **** #if defined(USE_FULL_LL_DRIVER)
  71:/home/tejas_tj/STM32Cube/Repository/STM32Cube_FW_L0_V1.10.0/Drivers/STM32L0xx_HAL_Driver/Inc/stm32l0xx_ll_exti.h **** /** @defgroup EXTI_LL_ES_INIT EXTI Exported Init structure
  72:/home/tejas_tj/STM32Cube/Repository/STM32Cube_FW_L0_V1.10.0/Drivers/STM32L0xx_HAL_Driver/Inc/stm32l0xx_ll_exti.h ****   * @{
  73:/home/tejas_tj/STM32Cube/Repository/STM32Cube_FW_L0_V1.10.0/Drivers/STM32L0xx_HAL_Driver/Inc/stm32l0xx_ll_exti.h ****   */
  74:/home/tejas_tj/STM32Cube/Repository/STM32Cube_FW_L0_V1.10.0/Drivers/STM32L0xx_HAL_Driver/Inc/stm32l0xx_ll_exti.h **** typedef struct
  75:/home/tejas_tj/STM32Cube/Repository/STM32Cube_FW_L0_V1.10.0/Drivers/STM32L0xx_HAL_Driver/Inc/stm32l0xx_ll_exti.h **** {
  76:/home/tejas_tj/STM32Cube/Repository/STM32Cube_FW_L0_V1.10.0/Drivers/STM32L0xx_HAL_Driver/Inc/stm32l0xx_ll_exti.h **** 
  77:/home/tejas_tj/STM32Cube/Repository/STM32Cube_FW_L0_V1.10.0/Drivers/STM32L0xx_HAL_Driver/Inc/stm32l0xx_ll_exti.h ****   uint32_t Line_0_31;           /*!< Specifies the EXTI lines to be enabled or disabled for Lines i
  78:/home/tejas_tj/STM32Cube/Repository/STM32Cube_FW_L0_V1.10.0/Drivers/STM32L0xx_HAL_Driver/Inc/stm32l0xx_ll_exti.h ****                                      This parameter can be any combination of @ref EXTI_LL_EC_LINE 
  79:/home/tejas_tj/STM32Cube/Repository/STM32Cube_FW_L0_V1.10.0/Drivers/STM32L0xx_HAL_Driver/Inc/stm32l0xx_ll_exti.h **** 
  80:/home/tejas_tj/STM32Cube/Repository/STM32Cube_FW_L0_V1.10.0/Drivers/STM32L0xx_HAL_Driver/Inc/stm32l0xx_ll_exti.h ****   FunctionalState LineCommand;  /*!< Specifies the new state of the selected EXTI lines.
  81:/home/tejas_tj/STM32Cube/Repository/STM32Cube_FW_L0_V1.10.0/Drivers/STM32L0xx_HAL_Driver/Inc/stm32l0xx_ll_exti.h ****                                      This parameter can be set either to ENABLE or DISABLE */
  82:/home/tejas_tj/STM32Cube/Repository/STM32Cube_FW_L0_V1.10.0/Drivers/STM32L0xx_HAL_Driver/Inc/stm32l0xx_ll_exti.h **** 
  83:/home/tejas_tj/STM32Cube/Repository/STM32Cube_FW_L0_V1.10.0/Drivers/STM32L0xx_HAL_Driver/Inc/stm32l0xx_ll_exti.h ****   uint8_t Mode;                 /*!< Specifies the mode for the EXTI lines.
  84:/home/tejas_tj/STM32Cube/Repository/STM32Cube_FW_L0_V1.10.0/Drivers/STM32L0xx_HAL_Driver/Inc/stm32l0xx_ll_exti.h ****                                      This parameter can be a value of @ref EXTI_LL_EC_MODE. */
  85:/home/tejas_tj/STM32Cube/Repository/STM32Cube_FW_L0_V1.10.0/Drivers/STM32L0xx_HAL_Driver/Inc/stm32l0xx_ll_exti.h **** 
  86:/home/tejas_tj/STM32Cube/Repository/STM32Cube_FW_L0_V1.10.0/Drivers/STM32L0xx_HAL_Driver/Inc/stm32l0xx_ll_exti.h ****   uint8_t Trigger;              /*!< Specifies the trigger signal active edge for the EXTI lines.
  87:/home/tejas_tj/STM32Cube/Repository/STM32Cube_FW_L0_V1.10.0/Drivers/STM32L0xx_HAL_Driver/Inc/stm32l0xx_ll_exti.h ****                                      This parameter can be a value of @ref EXTI_LL_EC_TRIGGER. */
  88:/home/tejas_tj/STM32Cube/Repository/STM32Cube_FW_L0_V1.10.0/Drivers/STM32L0xx_HAL_Driver/Inc/stm32l0xx_ll_exti.h **** } LL_EXTI_InitTypeDef;
  89:/home/tejas_tj/STM32Cube/Repository/STM32Cube_FW_L0_V1.10.0/Drivers/STM32L0xx_HAL_Driver/Inc/stm32l0xx_ll_exti.h **** 
  90:/home/tejas_tj/STM32Cube/Repository/STM32Cube_FW_L0_V1.10.0/Drivers/STM32L0xx_HAL_Driver/Inc/stm32l0xx_ll_exti.h **** /**
  91:/home/tejas_tj/STM32Cube/Repository/STM32Cube_FW_L0_V1.10.0/Drivers/STM32L0xx_HAL_Driver/Inc/stm32l0xx_ll_exti.h ****   * @}
  92:/home/tejas_tj/STM32Cube/Repository/STM32Cube_FW_L0_V1.10.0/Drivers/STM32L0xx_HAL_Driver/Inc/stm32l0xx_ll_exti.h ****   */
  93:/home/tejas_tj/STM32Cube/Repository/STM32Cube_FW_L0_V1.10.0/Drivers/STM32L0xx_HAL_Driver/Inc/stm32l0xx_ll_exti.h **** #endif /*USE_FULL_LL_DRIVER*/
  94:/home/tejas_tj/STM32Cube/Repository/STM32Cube_FW_L0_V1.10.0/Drivers/STM32L0xx_HAL_Driver/Inc/stm32l0xx_ll_exti.h **** 
  95:/home/tejas_tj/STM32Cube/Repository/STM32Cube_FW_L0_V1.10.0/Drivers/STM32L0xx_HAL_Driver/Inc/stm32l0xx_ll_exti.h **** /* Exported constants --------------------------------------------------------*/
  96:/home/tejas_tj/STM32Cube/Repository/STM32Cube_FW_L0_V1.10.0/Drivers/STM32L0xx_HAL_Driver/Inc/stm32l0xx_ll_exti.h **** /** @defgroup EXTI_LL_Exported_Constants EXTI Exported Constants
  97:/home/tejas_tj/STM32Cube/Repository/STM32Cube_FW_L0_V1.10.0/Drivers/STM32L0xx_HAL_Driver/Inc/stm32l0xx_ll_exti.h ****   * @{
  98:/home/tejas_tj/STM32Cube/Repository/STM32Cube_FW_L0_V1.10.0/Drivers/STM32L0xx_HAL_Driver/Inc/stm32l0xx_ll_exti.h ****   */
  99:/home/tejas_tj/STM32Cube/Repository/STM32Cube_FW_L0_V1.10.0/Drivers/STM32L0xx_HAL_Driver/Inc/stm32l0xx_ll_exti.h **** 
 100:/home/tejas_tj/STM32Cube/Repository/STM32Cube_FW_L0_V1.10.0/Drivers/STM32L0xx_HAL_Driver/Inc/stm32l0xx_ll_exti.h **** /** @defgroup EXTI_LL_EC_LINE LINE
 101:/home/tejas_tj/STM32Cube/Repository/STM32Cube_FW_L0_V1.10.0/Drivers/STM32L0xx_HAL_Driver/Inc/stm32l0xx_ll_exti.h ****   * @{
ARM GAS  /tmp/ccUHhNY0.s 			page 8


 102:/home/tejas_tj/STM32Cube/Repository/STM32Cube_FW_L0_V1.10.0/Drivers/STM32L0xx_HAL_Driver/Inc/stm32l0xx_ll_exti.h ****   */
 103:/home/tejas_tj/STM32Cube/Repository/STM32Cube_FW_L0_V1.10.0/Drivers/STM32L0xx_HAL_Driver/Inc/stm32l0xx_ll_exti.h **** #define LL_EXTI_LINE_0                 EXTI_IMR_IM0           /*!< Extended line 0 */
 104:/home/tejas_tj/STM32Cube/Repository/STM32Cube_FW_L0_V1.10.0/Drivers/STM32L0xx_HAL_Driver/Inc/stm32l0xx_ll_exti.h **** #define LL_EXTI_LINE_1                 EXTI_IMR_IM1           /*!< Extended line 1 */
 105:/home/tejas_tj/STM32Cube/Repository/STM32Cube_FW_L0_V1.10.0/Drivers/STM32L0xx_HAL_Driver/Inc/stm32l0xx_ll_exti.h **** #define LL_EXTI_LINE_2                 EXTI_IMR_IM2           /*!< Extended line 2 */
 106:/home/tejas_tj/STM32Cube/Repository/STM32Cube_FW_L0_V1.10.0/Drivers/STM32L0xx_HAL_Driver/Inc/stm32l0xx_ll_exti.h **** #define LL_EXTI_LINE_3                 EXTI_IMR_IM3           /*!< Extended line 3 */
 107:/home/tejas_tj/STM32Cube/Repository/STM32Cube_FW_L0_V1.10.0/Drivers/STM32L0xx_HAL_Driver/Inc/stm32l0xx_ll_exti.h **** #define LL_EXTI_LINE_4                 EXTI_IMR_IM4           /*!< Extended line 4 */
 108:/home/tejas_tj/STM32Cube/Repository/STM32Cube_FW_L0_V1.10.0/Drivers/STM32L0xx_HAL_Driver/Inc/stm32l0xx_ll_exti.h **** #define LL_EXTI_LINE_5                 EXTI_IMR_IM5           /*!< Extended line 5 */
 109:/home/tejas_tj/STM32Cube/Repository/STM32Cube_FW_L0_V1.10.0/Drivers/STM32L0xx_HAL_Driver/Inc/stm32l0xx_ll_exti.h **** #define LL_EXTI_LINE_6                 EXTI_IMR_IM6           /*!< Extended line 6 */
 110:/home/tejas_tj/STM32Cube/Repository/STM32Cube_FW_L0_V1.10.0/Drivers/STM32L0xx_HAL_Driver/Inc/stm32l0xx_ll_exti.h **** #define LL_EXTI_LINE_7                 EXTI_IMR_IM7           /*!< Extended line 7 */
 111:/home/tejas_tj/STM32Cube/Repository/STM32Cube_FW_L0_V1.10.0/Drivers/STM32L0xx_HAL_Driver/Inc/stm32l0xx_ll_exti.h **** #define LL_EXTI_LINE_8                 EXTI_IMR_IM8           /*!< Extended line 8 */
 112:/home/tejas_tj/STM32Cube/Repository/STM32Cube_FW_L0_V1.10.0/Drivers/STM32L0xx_HAL_Driver/Inc/stm32l0xx_ll_exti.h **** #define LL_EXTI_LINE_9                 EXTI_IMR_IM9           /*!< Extended line 9 */
 113:/home/tejas_tj/STM32Cube/Repository/STM32Cube_FW_L0_V1.10.0/Drivers/STM32L0xx_HAL_Driver/Inc/stm32l0xx_ll_exti.h **** #define LL_EXTI_LINE_10                EXTI_IMR_IM10          /*!< Extended line 10 */
 114:/home/tejas_tj/STM32Cube/Repository/STM32Cube_FW_L0_V1.10.0/Drivers/STM32L0xx_HAL_Driver/Inc/stm32l0xx_ll_exti.h **** #define LL_EXTI_LINE_11                EXTI_IMR_IM11          /*!< Extended line 11 */
 115:/home/tejas_tj/STM32Cube/Repository/STM32Cube_FW_L0_V1.10.0/Drivers/STM32L0xx_HAL_Driver/Inc/stm32l0xx_ll_exti.h **** #define LL_EXTI_LINE_12                EXTI_IMR_IM12          /*!< Extended line 12 */
 116:/home/tejas_tj/STM32Cube/Repository/STM32Cube_FW_L0_V1.10.0/Drivers/STM32L0xx_HAL_Driver/Inc/stm32l0xx_ll_exti.h **** #define LL_EXTI_LINE_13                EXTI_IMR_IM13          /*!< Extended line 13 */
 117:/home/tejas_tj/STM32Cube/Repository/STM32Cube_FW_L0_V1.10.0/Drivers/STM32L0xx_HAL_Driver/Inc/stm32l0xx_ll_exti.h **** #define LL_EXTI_LINE_14                EXTI_IMR_IM14          /*!< Extended line 14 */
 118:/home/tejas_tj/STM32Cube/Repository/STM32Cube_FW_L0_V1.10.0/Drivers/STM32L0xx_HAL_Driver/Inc/stm32l0xx_ll_exti.h **** #define LL_EXTI_LINE_15                EXTI_IMR_IM15          /*!< Extended line 15 */
 119:/home/tejas_tj/STM32Cube/Repository/STM32Cube_FW_L0_V1.10.0/Drivers/STM32L0xx_HAL_Driver/Inc/stm32l0xx_ll_exti.h **** #if defined(EXTI_IMR_IM16)
 120:/home/tejas_tj/STM32Cube/Repository/STM32Cube_FW_L0_V1.10.0/Drivers/STM32L0xx_HAL_Driver/Inc/stm32l0xx_ll_exti.h **** #define LL_EXTI_LINE_16                EXTI_IMR_IM16          /*!< Extended line 16 */
 121:/home/tejas_tj/STM32Cube/Repository/STM32Cube_FW_L0_V1.10.0/Drivers/STM32L0xx_HAL_Driver/Inc/stm32l0xx_ll_exti.h **** #endif
 122:/home/tejas_tj/STM32Cube/Repository/STM32Cube_FW_L0_V1.10.0/Drivers/STM32L0xx_HAL_Driver/Inc/stm32l0xx_ll_exti.h **** #define LL_EXTI_LINE_17                EXTI_IMR_IM17          /*!< Extended line 17 */
 123:/home/tejas_tj/STM32Cube/Repository/STM32Cube_FW_L0_V1.10.0/Drivers/STM32L0xx_HAL_Driver/Inc/stm32l0xx_ll_exti.h **** #if defined(EXTI_IMR_IM18)
 124:/home/tejas_tj/STM32Cube/Repository/STM32Cube_FW_L0_V1.10.0/Drivers/STM32L0xx_HAL_Driver/Inc/stm32l0xx_ll_exti.h **** #define LL_EXTI_LINE_18                EXTI_IMR_IM18          /*!< Extended line 18 */
 125:/home/tejas_tj/STM32Cube/Repository/STM32Cube_FW_L0_V1.10.0/Drivers/STM32L0xx_HAL_Driver/Inc/stm32l0xx_ll_exti.h **** #endif
 126:/home/tejas_tj/STM32Cube/Repository/STM32Cube_FW_L0_V1.10.0/Drivers/STM32L0xx_HAL_Driver/Inc/stm32l0xx_ll_exti.h **** #define LL_EXTI_LINE_19                EXTI_IMR_IM19          /*!< Extended line 19 */
 127:/home/tejas_tj/STM32Cube/Repository/STM32Cube_FW_L0_V1.10.0/Drivers/STM32L0xx_HAL_Driver/Inc/stm32l0xx_ll_exti.h **** #if defined(EXTI_IMR_IM20)
 128:/home/tejas_tj/STM32Cube/Repository/STM32Cube_FW_L0_V1.10.0/Drivers/STM32L0xx_HAL_Driver/Inc/stm32l0xx_ll_exti.h **** #define LL_EXTI_LINE_20                EXTI_IMR_IM20          /*!< Extended line 20 */
 129:/home/tejas_tj/STM32Cube/Repository/STM32Cube_FW_L0_V1.10.0/Drivers/STM32L0xx_HAL_Driver/Inc/stm32l0xx_ll_exti.h **** #endif
 130:/home/tejas_tj/STM32Cube/Repository/STM32Cube_FW_L0_V1.10.0/Drivers/STM32L0xx_HAL_Driver/Inc/stm32l0xx_ll_exti.h **** #if defined(EXTI_IMR_IM21)
 131:/home/tejas_tj/STM32Cube/Repository/STM32Cube_FW_L0_V1.10.0/Drivers/STM32L0xx_HAL_Driver/Inc/stm32l0xx_ll_exti.h **** #define LL_EXTI_LINE_21                EXTI_IMR_IM21          /*!< Extended line 21 */
 132:/home/tejas_tj/STM32Cube/Repository/STM32Cube_FW_L0_V1.10.0/Drivers/STM32L0xx_HAL_Driver/Inc/stm32l0xx_ll_exti.h **** #endif
 133:/home/tejas_tj/STM32Cube/Repository/STM32Cube_FW_L0_V1.10.0/Drivers/STM32L0xx_HAL_Driver/Inc/stm32l0xx_ll_exti.h **** #if defined(EXTI_IMR_IM22)
 134:/home/tejas_tj/STM32Cube/Repository/STM32Cube_FW_L0_V1.10.0/Drivers/STM32L0xx_HAL_Driver/Inc/stm32l0xx_ll_exti.h **** #define LL_EXTI_LINE_22                EXTI_IMR_IM22          /*!< Extended line 22 */
 135:/home/tejas_tj/STM32Cube/Repository/STM32Cube_FW_L0_V1.10.0/Drivers/STM32L0xx_HAL_Driver/Inc/stm32l0xx_ll_exti.h **** #endif
 136:/home/tejas_tj/STM32Cube/Repository/STM32Cube_FW_L0_V1.10.0/Drivers/STM32L0xx_HAL_Driver/Inc/stm32l0xx_ll_exti.h **** #define LL_EXTI_LINE_23                EXTI_IMR_IM23          /*!< Extended line 23 */
 137:/home/tejas_tj/STM32Cube/Repository/STM32Cube_FW_L0_V1.10.0/Drivers/STM32L0xx_HAL_Driver/Inc/stm32l0xx_ll_exti.h **** #if defined(EXTI_IMR_IM24)
 138:/home/tejas_tj/STM32Cube/Repository/STM32Cube_FW_L0_V1.10.0/Drivers/STM32L0xx_HAL_Driver/Inc/stm32l0xx_ll_exti.h **** #define LL_EXTI_LINE_24                EXTI_IMR_IM24          /*!< Extended line 24 */
 139:/home/tejas_tj/STM32Cube/Repository/STM32Cube_FW_L0_V1.10.0/Drivers/STM32L0xx_HAL_Driver/Inc/stm32l0xx_ll_exti.h **** #endif
 140:/home/tejas_tj/STM32Cube/Repository/STM32Cube_FW_L0_V1.10.0/Drivers/STM32L0xx_HAL_Driver/Inc/stm32l0xx_ll_exti.h **** #if defined(EXTI_IMR_IM25)
 141:/home/tejas_tj/STM32Cube/Repository/STM32Cube_FW_L0_V1.10.0/Drivers/STM32L0xx_HAL_Driver/Inc/stm32l0xx_ll_exti.h **** #define LL_EXTI_LINE_25                EXTI_IMR_IM25          /*!< Extended line 25 */
 142:/home/tejas_tj/STM32Cube/Repository/STM32Cube_FW_L0_V1.10.0/Drivers/STM32L0xx_HAL_Driver/Inc/stm32l0xx_ll_exti.h **** #endif
 143:/home/tejas_tj/STM32Cube/Repository/STM32Cube_FW_L0_V1.10.0/Drivers/STM32L0xx_HAL_Driver/Inc/stm32l0xx_ll_exti.h **** #if defined(EXTI_IMR_IM26)
 144:/home/tejas_tj/STM32Cube/Repository/STM32Cube_FW_L0_V1.10.0/Drivers/STM32L0xx_HAL_Driver/Inc/stm32l0xx_ll_exti.h **** #define LL_EXTI_LINE_26                EXTI_IMR_IM26          /*!< Extended line 26 */
 145:/home/tejas_tj/STM32Cube/Repository/STM32Cube_FW_L0_V1.10.0/Drivers/STM32L0xx_HAL_Driver/Inc/stm32l0xx_ll_exti.h **** #endif
 146:/home/tejas_tj/STM32Cube/Repository/STM32Cube_FW_L0_V1.10.0/Drivers/STM32L0xx_HAL_Driver/Inc/stm32l0xx_ll_exti.h **** #if defined(EXTI_IMR_IM27)
 147:/home/tejas_tj/STM32Cube/Repository/STM32Cube_FW_L0_V1.10.0/Drivers/STM32L0xx_HAL_Driver/Inc/stm32l0xx_ll_exti.h **** #define LL_EXTI_LINE_27                EXTI_IMR_IM27          /*!< Extended line 27 */
 148:/home/tejas_tj/STM32Cube/Repository/STM32Cube_FW_L0_V1.10.0/Drivers/STM32L0xx_HAL_Driver/Inc/stm32l0xx_ll_exti.h **** #endif
 149:/home/tejas_tj/STM32Cube/Repository/STM32Cube_FW_L0_V1.10.0/Drivers/STM32L0xx_HAL_Driver/Inc/stm32l0xx_ll_exti.h **** #if defined(EXTI_IMR_IM28)
 150:/home/tejas_tj/STM32Cube/Repository/STM32Cube_FW_L0_V1.10.0/Drivers/STM32L0xx_HAL_Driver/Inc/stm32l0xx_ll_exti.h **** #define LL_EXTI_LINE_28                EXTI_IMR_IM28          /*!< Extended line 28 */
 151:/home/tejas_tj/STM32Cube/Repository/STM32Cube_FW_L0_V1.10.0/Drivers/STM32L0xx_HAL_Driver/Inc/stm32l0xx_ll_exti.h **** #endif
 152:/home/tejas_tj/STM32Cube/Repository/STM32Cube_FW_L0_V1.10.0/Drivers/STM32L0xx_HAL_Driver/Inc/stm32l0xx_ll_exti.h **** #if defined(EXTI_IMR_IM29)
 153:/home/tejas_tj/STM32Cube/Repository/STM32Cube_FW_L0_V1.10.0/Drivers/STM32L0xx_HAL_Driver/Inc/stm32l0xx_ll_exti.h **** #define LL_EXTI_LINE_29                EXTI_IMR_IM29          /*!< Extended line 29 */
 154:/home/tejas_tj/STM32Cube/Repository/STM32Cube_FW_L0_V1.10.0/Drivers/STM32L0xx_HAL_Driver/Inc/stm32l0xx_ll_exti.h **** #endif
 155:/home/tejas_tj/STM32Cube/Repository/STM32Cube_FW_L0_V1.10.0/Drivers/STM32L0xx_HAL_Driver/Inc/stm32l0xx_ll_exti.h **** #if defined(EXTI_IMR_IM30)
 156:/home/tejas_tj/STM32Cube/Repository/STM32Cube_FW_L0_V1.10.0/Drivers/STM32L0xx_HAL_Driver/Inc/stm32l0xx_ll_exti.h **** #define LL_EXTI_LINE_30                EXTI_IMR_IM30          /*!< Extended line 30 */
 157:/home/tejas_tj/STM32Cube/Repository/STM32Cube_FW_L0_V1.10.0/Drivers/STM32L0xx_HAL_Driver/Inc/stm32l0xx_ll_exti.h **** #endif
 158:/home/tejas_tj/STM32Cube/Repository/STM32Cube_FW_L0_V1.10.0/Drivers/STM32L0xx_HAL_Driver/Inc/stm32l0xx_ll_exti.h **** #if defined(EXTI_IMR_IM31)
ARM GAS  /tmp/ccUHhNY0.s 			page 9


 159:/home/tejas_tj/STM32Cube/Repository/STM32Cube_FW_L0_V1.10.0/Drivers/STM32L0xx_HAL_Driver/Inc/stm32l0xx_ll_exti.h **** #define LL_EXTI_LINE_31                EXTI_IMR_IM31          /*!< Extended line 31 */
 160:/home/tejas_tj/STM32Cube/Repository/STM32Cube_FW_L0_V1.10.0/Drivers/STM32L0xx_HAL_Driver/Inc/stm32l0xx_ll_exti.h **** #endif
 161:/home/tejas_tj/STM32Cube/Repository/STM32Cube_FW_L0_V1.10.0/Drivers/STM32L0xx_HAL_Driver/Inc/stm32l0xx_ll_exti.h **** #define LL_EXTI_LINE_ALL_0_31          EXTI_IMR_IM            /*!< All Extended line not reserved*/
 162:/home/tejas_tj/STM32Cube/Repository/STM32Cube_FW_L0_V1.10.0/Drivers/STM32L0xx_HAL_Driver/Inc/stm32l0xx_ll_exti.h **** 
 163:/home/tejas_tj/STM32Cube/Repository/STM32Cube_FW_L0_V1.10.0/Drivers/STM32L0xx_HAL_Driver/Inc/stm32l0xx_ll_exti.h **** 
 164:/home/tejas_tj/STM32Cube/Repository/STM32Cube_FW_L0_V1.10.0/Drivers/STM32L0xx_HAL_Driver/Inc/stm32l0xx_ll_exti.h **** #define LL_EXTI_LINE_ALL               ((uint32_t)0xFFFFFFFFU)  /*!< All Extended line */
 165:/home/tejas_tj/STM32Cube/Repository/STM32Cube_FW_L0_V1.10.0/Drivers/STM32L0xx_HAL_Driver/Inc/stm32l0xx_ll_exti.h **** 
 166:/home/tejas_tj/STM32Cube/Repository/STM32Cube_FW_L0_V1.10.0/Drivers/STM32L0xx_HAL_Driver/Inc/stm32l0xx_ll_exti.h **** #if defined(USE_FULL_LL_DRIVER)
 167:/home/tejas_tj/STM32Cube/Repository/STM32Cube_FW_L0_V1.10.0/Drivers/STM32L0xx_HAL_Driver/Inc/stm32l0xx_ll_exti.h **** #define LL_EXTI_LINE_NONE              ((uint32_t)0x00000000U)  /*!< None Extended line */
 168:/home/tejas_tj/STM32Cube/Repository/STM32Cube_FW_L0_V1.10.0/Drivers/STM32L0xx_HAL_Driver/Inc/stm32l0xx_ll_exti.h **** #endif /*USE_FULL_LL_DRIVER*/
 169:/home/tejas_tj/STM32Cube/Repository/STM32Cube_FW_L0_V1.10.0/Drivers/STM32L0xx_HAL_Driver/Inc/stm32l0xx_ll_exti.h **** 
 170:/home/tejas_tj/STM32Cube/Repository/STM32Cube_FW_L0_V1.10.0/Drivers/STM32L0xx_HAL_Driver/Inc/stm32l0xx_ll_exti.h **** /**
 171:/home/tejas_tj/STM32Cube/Repository/STM32Cube_FW_L0_V1.10.0/Drivers/STM32L0xx_HAL_Driver/Inc/stm32l0xx_ll_exti.h ****   * @}
 172:/home/tejas_tj/STM32Cube/Repository/STM32Cube_FW_L0_V1.10.0/Drivers/STM32L0xx_HAL_Driver/Inc/stm32l0xx_ll_exti.h ****   */
 173:/home/tejas_tj/STM32Cube/Repository/STM32Cube_FW_L0_V1.10.0/Drivers/STM32L0xx_HAL_Driver/Inc/stm32l0xx_ll_exti.h **** #if defined(USE_FULL_LL_DRIVER)
 174:/home/tejas_tj/STM32Cube/Repository/STM32Cube_FW_L0_V1.10.0/Drivers/STM32L0xx_HAL_Driver/Inc/stm32l0xx_ll_exti.h **** 
 175:/home/tejas_tj/STM32Cube/Repository/STM32Cube_FW_L0_V1.10.0/Drivers/STM32L0xx_HAL_Driver/Inc/stm32l0xx_ll_exti.h **** /** @defgroup EXTI_LL_EC_MODE Mode
 176:/home/tejas_tj/STM32Cube/Repository/STM32Cube_FW_L0_V1.10.0/Drivers/STM32L0xx_HAL_Driver/Inc/stm32l0xx_ll_exti.h ****   * @{
 177:/home/tejas_tj/STM32Cube/Repository/STM32Cube_FW_L0_V1.10.0/Drivers/STM32L0xx_HAL_Driver/Inc/stm32l0xx_ll_exti.h ****   */
 178:/home/tejas_tj/STM32Cube/Repository/STM32Cube_FW_L0_V1.10.0/Drivers/STM32L0xx_HAL_Driver/Inc/stm32l0xx_ll_exti.h **** #define LL_EXTI_MODE_IT                 ((uint8_t)0x00U) /*!< Interrupt Mode */
 179:/home/tejas_tj/STM32Cube/Repository/STM32Cube_FW_L0_V1.10.0/Drivers/STM32L0xx_HAL_Driver/Inc/stm32l0xx_ll_exti.h **** #define LL_EXTI_MODE_EVENT              ((uint8_t)0x01U) /*!< Event Mode */
 180:/home/tejas_tj/STM32Cube/Repository/STM32Cube_FW_L0_V1.10.0/Drivers/STM32L0xx_HAL_Driver/Inc/stm32l0xx_ll_exti.h **** #define LL_EXTI_MODE_IT_EVENT           ((uint8_t)0x02U) /*!< Interrupt & Event Mode */
 181:/home/tejas_tj/STM32Cube/Repository/STM32Cube_FW_L0_V1.10.0/Drivers/STM32L0xx_HAL_Driver/Inc/stm32l0xx_ll_exti.h **** /**
 182:/home/tejas_tj/STM32Cube/Repository/STM32Cube_FW_L0_V1.10.0/Drivers/STM32L0xx_HAL_Driver/Inc/stm32l0xx_ll_exti.h ****   * @}
 183:/home/tejas_tj/STM32Cube/Repository/STM32Cube_FW_L0_V1.10.0/Drivers/STM32L0xx_HAL_Driver/Inc/stm32l0xx_ll_exti.h ****   */
 184:/home/tejas_tj/STM32Cube/Repository/STM32Cube_FW_L0_V1.10.0/Drivers/STM32L0xx_HAL_Driver/Inc/stm32l0xx_ll_exti.h **** 
 185:/home/tejas_tj/STM32Cube/Repository/STM32Cube_FW_L0_V1.10.0/Drivers/STM32L0xx_HAL_Driver/Inc/stm32l0xx_ll_exti.h **** /** @defgroup EXTI_LL_EC_TRIGGER Edge Trigger
 186:/home/tejas_tj/STM32Cube/Repository/STM32Cube_FW_L0_V1.10.0/Drivers/STM32L0xx_HAL_Driver/Inc/stm32l0xx_ll_exti.h ****   * @{
 187:/home/tejas_tj/STM32Cube/Repository/STM32Cube_FW_L0_V1.10.0/Drivers/STM32L0xx_HAL_Driver/Inc/stm32l0xx_ll_exti.h ****   */
 188:/home/tejas_tj/STM32Cube/Repository/STM32Cube_FW_L0_V1.10.0/Drivers/STM32L0xx_HAL_Driver/Inc/stm32l0xx_ll_exti.h **** #define LL_EXTI_TRIGGER_NONE            ((uint8_t)0x00U) /*!< No Trigger Mode */
 189:/home/tejas_tj/STM32Cube/Repository/STM32Cube_FW_L0_V1.10.0/Drivers/STM32L0xx_HAL_Driver/Inc/stm32l0xx_ll_exti.h **** #define LL_EXTI_TRIGGER_RISING          ((uint8_t)0x01U) /*!< Trigger Rising Mode */
 190:/home/tejas_tj/STM32Cube/Repository/STM32Cube_FW_L0_V1.10.0/Drivers/STM32L0xx_HAL_Driver/Inc/stm32l0xx_ll_exti.h **** #define LL_EXTI_TRIGGER_FALLING         ((uint8_t)0x02U) /*!< Trigger Falling Mode */
 191:/home/tejas_tj/STM32Cube/Repository/STM32Cube_FW_L0_V1.10.0/Drivers/STM32L0xx_HAL_Driver/Inc/stm32l0xx_ll_exti.h **** #define LL_EXTI_TRIGGER_RISING_FALLING  ((uint8_t)0x03U) /*!< Trigger Rising & Falling Mode */
 192:/home/tejas_tj/STM32Cube/Repository/STM32Cube_FW_L0_V1.10.0/Drivers/STM32L0xx_HAL_Driver/Inc/stm32l0xx_ll_exti.h **** 
 193:/home/tejas_tj/STM32Cube/Repository/STM32Cube_FW_L0_V1.10.0/Drivers/STM32L0xx_HAL_Driver/Inc/stm32l0xx_ll_exti.h **** /**
 194:/home/tejas_tj/STM32Cube/Repository/STM32Cube_FW_L0_V1.10.0/Drivers/STM32L0xx_HAL_Driver/Inc/stm32l0xx_ll_exti.h ****   * @}
 195:/home/tejas_tj/STM32Cube/Repository/STM32Cube_FW_L0_V1.10.0/Drivers/STM32L0xx_HAL_Driver/Inc/stm32l0xx_ll_exti.h ****   */
 196:/home/tejas_tj/STM32Cube/Repository/STM32Cube_FW_L0_V1.10.0/Drivers/STM32L0xx_HAL_Driver/Inc/stm32l0xx_ll_exti.h **** 
 197:/home/tejas_tj/STM32Cube/Repository/STM32Cube_FW_L0_V1.10.0/Drivers/STM32L0xx_HAL_Driver/Inc/stm32l0xx_ll_exti.h **** 
 198:/home/tejas_tj/STM32Cube/Repository/STM32Cube_FW_L0_V1.10.0/Drivers/STM32L0xx_HAL_Driver/Inc/stm32l0xx_ll_exti.h **** #endif /*USE_FULL_LL_DRIVER*/
 199:/home/tejas_tj/STM32Cube/Repository/STM32Cube_FW_L0_V1.10.0/Drivers/STM32L0xx_HAL_Driver/Inc/stm32l0xx_ll_exti.h **** 
 200:/home/tejas_tj/STM32Cube/Repository/STM32Cube_FW_L0_V1.10.0/Drivers/STM32L0xx_HAL_Driver/Inc/stm32l0xx_ll_exti.h **** 
 201:/home/tejas_tj/STM32Cube/Repository/STM32Cube_FW_L0_V1.10.0/Drivers/STM32L0xx_HAL_Driver/Inc/stm32l0xx_ll_exti.h **** /**
 202:/home/tejas_tj/STM32Cube/Repository/STM32Cube_FW_L0_V1.10.0/Drivers/STM32L0xx_HAL_Driver/Inc/stm32l0xx_ll_exti.h ****   * @}
 203:/home/tejas_tj/STM32Cube/Repository/STM32Cube_FW_L0_V1.10.0/Drivers/STM32L0xx_HAL_Driver/Inc/stm32l0xx_ll_exti.h ****   */
 204:/home/tejas_tj/STM32Cube/Repository/STM32Cube_FW_L0_V1.10.0/Drivers/STM32L0xx_HAL_Driver/Inc/stm32l0xx_ll_exti.h **** 
 205:/home/tejas_tj/STM32Cube/Repository/STM32Cube_FW_L0_V1.10.0/Drivers/STM32L0xx_HAL_Driver/Inc/stm32l0xx_ll_exti.h **** /* Exported macro ------------------------------------------------------------*/
 206:/home/tejas_tj/STM32Cube/Repository/STM32Cube_FW_L0_V1.10.0/Drivers/STM32L0xx_HAL_Driver/Inc/stm32l0xx_ll_exti.h **** /** @defgroup EXTI_LL_Exported_Macros EXTI Exported Macros
 207:/home/tejas_tj/STM32Cube/Repository/STM32Cube_FW_L0_V1.10.0/Drivers/STM32L0xx_HAL_Driver/Inc/stm32l0xx_ll_exti.h ****   * @{
 208:/home/tejas_tj/STM32Cube/Repository/STM32Cube_FW_L0_V1.10.0/Drivers/STM32L0xx_HAL_Driver/Inc/stm32l0xx_ll_exti.h ****   */
 209:/home/tejas_tj/STM32Cube/Repository/STM32Cube_FW_L0_V1.10.0/Drivers/STM32L0xx_HAL_Driver/Inc/stm32l0xx_ll_exti.h **** 
 210:/home/tejas_tj/STM32Cube/Repository/STM32Cube_FW_L0_V1.10.0/Drivers/STM32L0xx_HAL_Driver/Inc/stm32l0xx_ll_exti.h **** /** @defgroup EXTI_LL_EM_WRITE_READ Common Write and read registers Macros
 211:/home/tejas_tj/STM32Cube/Repository/STM32Cube_FW_L0_V1.10.0/Drivers/STM32L0xx_HAL_Driver/Inc/stm32l0xx_ll_exti.h ****   * @{
 212:/home/tejas_tj/STM32Cube/Repository/STM32Cube_FW_L0_V1.10.0/Drivers/STM32L0xx_HAL_Driver/Inc/stm32l0xx_ll_exti.h ****   */
 213:/home/tejas_tj/STM32Cube/Repository/STM32Cube_FW_L0_V1.10.0/Drivers/STM32L0xx_HAL_Driver/Inc/stm32l0xx_ll_exti.h **** 
 214:/home/tejas_tj/STM32Cube/Repository/STM32Cube_FW_L0_V1.10.0/Drivers/STM32L0xx_HAL_Driver/Inc/stm32l0xx_ll_exti.h **** /**
 215:/home/tejas_tj/STM32Cube/Repository/STM32Cube_FW_L0_V1.10.0/Drivers/STM32L0xx_HAL_Driver/Inc/stm32l0xx_ll_exti.h ****   * @brief  Write a value in EXTI register
ARM GAS  /tmp/ccUHhNY0.s 			page 10


 216:/home/tejas_tj/STM32Cube/Repository/STM32Cube_FW_L0_V1.10.0/Drivers/STM32L0xx_HAL_Driver/Inc/stm32l0xx_ll_exti.h ****   * @param  __REG__ Register to be written
 217:/home/tejas_tj/STM32Cube/Repository/STM32Cube_FW_L0_V1.10.0/Drivers/STM32L0xx_HAL_Driver/Inc/stm32l0xx_ll_exti.h ****   * @param  __VALUE__ Value to be written in the register
 218:/home/tejas_tj/STM32Cube/Repository/STM32Cube_FW_L0_V1.10.0/Drivers/STM32L0xx_HAL_Driver/Inc/stm32l0xx_ll_exti.h ****   * @retval None
 219:/home/tejas_tj/STM32Cube/Repository/STM32Cube_FW_L0_V1.10.0/Drivers/STM32L0xx_HAL_Driver/Inc/stm32l0xx_ll_exti.h ****   */
 220:/home/tejas_tj/STM32Cube/Repository/STM32Cube_FW_L0_V1.10.0/Drivers/STM32L0xx_HAL_Driver/Inc/stm32l0xx_ll_exti.h **** #define LL_EXTI_WriteReg(__REG__, __VALUE__) WRITE_REG(EXTI->__REG__, (__VALUE__))
 221:/home/tejas_tj/STM32Cube/Repository/STM32Cube_FW_L0_V1.10.0/Drivers/STM32L0xx_HAL_Driver/Inc/stm32l0xx_ll_exti.h **** 
 222:/home/tejas_tj/STM32Cube/Repository/STM32Cube_FW_L0_V1.10.0/Drivers/STM32L0xx_HAL_Driver/Inc/stm32l0xx_ll_exti.h **** /**
 223:/home/tejas_tj/STM32Cube/Repository/STM32Cube_FW_L0_V1.10.0/Drivers/STM32L0xx_HAL_Driver/Inc/stm32l0xx_ll_exti.h ****   * @brief  Read a value in EXTI register
 224:/home/tejas_tj/STM32Cube/Repository/STM32Cube_FW_L0_V1.10.0/Drivers/STM32L0xx_HAL_Driver/Inc/stm32l0xx_ll_exti.h ****   * @param  __REG__ Register to be read
 225:/home/tejas_tj/STM32Cube/Repository/STM32Cube_FW_L0_V1.10.0/Drivers/STM32L0xx_HAL_Driver/Inc/stm32l0xx_ll_exti.h ****   * @retval Register value
 226:/home/tejas_tj/STM32Cube/Repository/STM32Cube_FW_L0_V1.10.0/Drivers/STM32L0xx_HAL_Driver/Inc/stm32l0xx_ll_exti.h ****   */
 227:/home/tejas_tj/STM32Cube/Repository/STM32Cube_FW_L0_V1.10.0/Drivers/STM32L0xx_HAL_Driver/Inc/stm32l0xx_ll_exti.h **** #define LL_EXTI_ReadReg(__REG__) READ_REG(EXTI->__REG__)
 228:/home/tejas_tj/STM32Cube/Repository/STM32Cube_FW_L0_V1.10.0/Drivers/STM32L0xx_HAL_Driver/Inc/stm32l0xx_ll_exti.h **** /**
 229:/home/tejas_tj/STM32Cube/Repository/STM32Cube_FW_L0_V1.10.0/Drivers/STM32L0xx_HAL_Driver/Inc/stm32l0xx_ll_exti.h ****   * @}
 230:/home/tejas_tj/STM32Cube/Repository/STM32Cube_FW_L0_V1.10.0/Drivers/STM32L0xx_HAL_Driver/Inc/stm32l0xx_ll_exti.h ****   */
 231:/home/tejas_tj/STM32Cube/Repository/STM32Cube_FW_L0_V1.10.0/Drivers/STM32L0xx_HAL_Driver/Inc/stm32l0xx_ll_exti.h **** 
 232:/home/tejas_tj/STM32Cube/Repository/STM32Cube_FW_L0_V1.10.0/Drivers/STM32L0xx_HAL_Driver/Inc/stm32l0xx_ll_exti.h **** 
 233:/home/tejas_tj/STM32Cube/Repository/STM32Cube_FW_L0_V1.10.0/Drivers/STM32L0xx_HAL_Driver/Inc/stm32l0xx_ll_exti.h **** /**
 234:/home/tejas_tj/STM32Cube/Repository/STM32Cube_FW_L0_V1.10.0/Drivers/STM32L0xx_HAL_Driver/Inc/stm32l0xx_ll_exti.h ****   * @}
 235:/home/tejas_tj/STM32Cube/Repository/STM32Cube_FW_L0_V1.10.0/Drivers/STM32L0xx_HAL_Driver/Inc/stm32l0xx_ll_exti.h ****   */
 236:/home/tejas_tj/STM32Cube/Repository/STM32Cube_FW_L0_V1.10.0/Drivers/STM32L0xx_HAL_Driver/Inc/stm32l0xx_ll_exti.h **** 
 237:/home/tejas_tj/STM32Cube/Repository/STM32Cube_FW_L0_V1.10.0/Drivers/STM32L0xx_HAL_Driver/Inc/stm32l0xx_ll_exti.h **** 
 238:/home/tejas_tj/STM32Cube/Repository/STM32Cube_FW_L0_V1.10.0/Drivers/STM32L0xx_HAL_Driver/Inc/stm32l0xx_ll_exti.h **** 
 239:/home/tejas_tj/STM32Cube/Repository/STM32Cube_FW_L0_V1.10.0/Drivers/STM32L0xx_HAL_Driver/Inc/stm32l0xx_ll_exti.h **** /* Exported functions --------------------------------------------------------*/
 240:/home/tejas_tj/STM32Cube/Repository/STM32Cube_FW_L0_V1.10.0/Drivers/STM32L0xx_HAL_Driver/Inc/stm32l0xx_ll_exti.h **** /** @defgroup EXTI_LL_Exported_Functions EXTI Exported Functions
 241:/home/tejas_tj/STM32Cube/Repository/STM32Cube_FW_L0_V1.10.0/Drivers/STM32L0xx_HAL_Driver/Inc/stm32l0xx_ll_exti.h ****  * @{
 242:/home/tejas_tj/STM32Cube/Repository/STM32Cube_FW_L0_V1.10.0/Drivers/STM32L0xx_HAL_Driver/Inc/stm32l0xx_ll_exti.h ****  */
 243:/home/tejas_tj/STM32Cube/Repository/STM32Cube_FW_L0_V1.10.0/Drivers/STM32L0xx_HAL_Driver/Inc/stm32l0xx_ll_exti.h **** /** @defgroup EXTI_LL_EF_IT_Management IT_Management
 244:/home/tejas_tj/STM32Cube/Repository/STM32Cube_FW_L0_V1.10.0/Drivers/STM32L0xx_HAL_Driver/Inc/stm32l0xx_ll_exti.h ****   * @{
 245:/home/tejas_tj/STM32Cube/Repository/STM32Cube_FW_L0_V1.10.0/Drivers/STM32L0xx_HAL_Driver/Inc/stm32l0xx_ll_exti.h ****   */
 246:/home/tejas_tj/STM32Cube/Repository/STM32Cube_FW_L0_V1.10.0/Drivers/STM32L0xx_HAL_Driver/Inc/stm32l0xx_ll_exti.h **** 
 247:/home/tejas_tj/STM32Cube/Repository/STM32Cube_FW_L0_V1.10.0/Drivers/STM32L0xx_HAL_Driver/Inc/stm32l0xx_ll_exti.h **** /**
 248:/home/tejas_tj/STM32Cube/Repository/STM32Cube_FW_L0_V1.10.0/Drivers/STM32L0xx_HAL_Driver/Inc/stm32l0xx_ll_exti.h ****   * @brief  Enable ExtiLine Interrupt request for Lines in range 0 to 31
 249:/home/tejas_tj/STM32Cube/Repository/STM32Cube_FW_L0_V1.10.0/Drivers/STM32L0xx_HAL_Driver/Inc/stm32l0xx_ll_exti.h ****   * @note The reset value for the direct or internal lines (see RM)
 250:/home/tejas_tj/STM32Cube/Repository/STM32Cube_FW_L0_V1.10.0/Drivers/STM32L0xx_HAL_Driver/Inc/stm32l0xx_ll_exti.h ****   *       is set to 1 in order to enable the interrupt by default.
 251:/home/tejas_tj/STM32Cube/Repository/STM32Cube_FW_L0_V1.10.0/Drivers/STM32L0xx_HAL_Driver/Inc/stm32l0xx_ll_exti.h ****   *       Bits are set automatically at Power on.
 252:/home/tejas_tj/STM32Cube/Repository/STM32Cube_FW_L0_V1.10.0/Drivers/STM32L0xx_HAL_Driver/Inc/stm32l0xx_ll_exti.h ****   * @rmtoll IMR         IMx           LL_EXTI_EnableIT_0_31
 253:/home/tejas_tj/STM32Cube/Repository/STM32Cube_FW_L0_V1.10.0/Drivers/STM32L0xx_HAL_Driver/Inc/stm32l0xx_ll_exti.h ****   * @param  ExtiLine This parameter can be one of the following values:
 254:/home/tejas_tj/STM32Cube/Repository/STM32Cube_FW_L0_V1.10.0/Drivers/STM32L0xx_HAL_Driver/Inc/stm32l0xx_ll_exti.h ****   *         @arg @ref LL_EXTI_LINE_0
 255:/home/tejas_tj/STM32Cube/Repository/STM32Cube_FW_L0_V1.10.0/Drivers/STM32L0xx_HAL_Driver/Inc/stm32l0xx_ll_exti.h ****   *         @arg @ref LL_EXTI_LINE_1
 256:/home/tejas_tj/STM32Cube/Repository/STM32Cube_FW_L0_V1.10.0/Drivers/STM32L0xx_HAL_Driver/Inc/stm32l0xx_ll_exti.h ****   *         @arg @ref LL_EXTI_LINE_2
 257:/home/tejas_tj/STM32Cube/Repository/STM32Cube_FW_L0_V1.10.0/Drivers/STM32L0xx_HAL_Driver/Inc/stm32l0xx_ll_exti.h ****   *         @arg @ref LL_EXTI_LINE_3
 258:/home/tejas_tj/STM32Cube/Repository/STM32Cube_FW_L0_V1.10.0/Drivers/STM32L0xx_HAL_Driver/Inc/stm32l0xx_ll_exti.h ****   *         @arg @ref LL_EXTI_LINE_4
 259:/home/tejas_tj/STM32Cube/Repository/STM32Cube_FW_L0_V1.10.0/Drivers/STM32L0xx_HAL_Driver/Inc/stm32l0xx_ll_exti.h ****   *         @arg @ref LL_EXTI_LINE_5
 260:/home/tejas_tj/STM32Cube/Repository/STM32Cube_FW_L0_V1.10.0/Drivers/STM32L0xx_HAL_Driver/Inc/stm32l0xx_ll_exti.h ****   *         @arg @ref LL_EXTI_LINE_6
 261:/home/tejas_tj/STM32Cube/Repository/STM32Cube_FW_L0_V1.10.0/Drivers/STM32L0xx_HAL_Driver/Inc/stm32l0xx_ll_exti.h ****   *         @arg @ref LL_EXTI_LINE_7
 262:/home/tejas_tj/STM32Cube/Repository/STM32Cube_FW_L0_V1.10.0/Drivers/STM32L0xx_HAL_Driver/Inc/stm32l0xx_ll_exti.h ****   *         @arg @ref LL_EXTI_LINE_8
 263:/home/tejas_tj/STM32Cube/Repository/STM32Cube_FW_L0_V1.10.0/Drivers/STM32L0xx_HAL_Driver/Inc/stm32l0xx_ll_exti.h ****   *         @arg @ref LL_EXTI_LINE_9
 264:/home/tejas_tj/STM32Cube/Repository/STM32Cube_FW_L0_V1.10.0/Drivers/STM32L0xx_HAL_Driver/Inc/stm32l0xx_ll_exti.h ****   *         @arg @ref LL_EXTI_LINE_10
 265:/home/tejas_tj/STM32Cube/Repository/STM32Cube_FW_L0_V1.10.0/Drivers/STM32L0xx_HAL_Driver/Inc/stm32l0xx_ll_exti.h ****   *         @arg @ref LL_EXTI_LINE_11
 266:/home/tejas_tj/STM32Cube/Repository/STM32Cube_FW_L0_V1.10.0/Drivers/STM32L0xx_HAL_Driver/Inc/stm32l0xx_ll_exti.h ****   *         @arg @ref LL_EXTI_LINE_12
 267:/home/tejas_tj/STM32Cube/Repository/STM32Cube_FW_L0_V1.10.0/Drivers/STM32L0xx_HAL_Driver/Inc/stm32l0xx_ll_exti.h ****   *         @arg @ref LL_EXTI_LINE_13
 268:/home/tejas_tj/STM32Cube/Repository/STM32Cube_FW_L0_V1.10.0/Drivers/STM32L0xx_HAL_Driver/Inc/stm32l0xx_ll_exti.h ****   *         @arg @ref LL_EXTI_LINE_14
 269:/home/tejas_tj/STM32Cube/Repository/STM32Cube_FW_L0_V1.10.0/Drivers/STM32L0xx_HAL_Driver/Inc/stm32l0xx_ll_exti.h ****   *         @arg @ref LL_EXTI_LINE_15
 270:/home/tejas_tj/STM32Cube/Repository/STM32Cube_FW_L0_V1.10.0/Drivers/STM32L0xx_HAL_Driver/Inc/stm32l0xx_ll_exti.h ****   *         @arg @ref LL_EXTI_LINE_16
 271:/home/tejas_tj/STM32Cube/Repository/STM32Cube_FW_L0_V1.10.0/Drivers/STM32L0xx_HAL_Driver/Inc/stm32l0xx_ll_exti.h ****   *         @arg @ref LL_EXTI_LINE_17
 272:/home/tejas_tj/STM32Cube/Repository/STM32Cube_FW_L0_V1.10.0/Drivers/STM32L0xx_HAL_Driver/Inc/stm32l0xx_ll_exti.h ****   *         @arg @ref LL_EXTI_LINE_18
ARM GAS  /tmp/ccUHhNY0.s 			page 11


 273:/home/tejas_tj/STM32Cube/Repository/STM32Cube_FW_L0_V1.10.0/Drivers/STM32L0xx_HAL_Driver/Inc/stm32l0xx_ll_exti.h ****   *         @arg @ref LL_EXTI_LINE_19
 274:/home/tejas_tj/STM32Cube/Repository/STM32Cube_FW_L0_V1.10.0/Drivers/STM32L0xx_HAL_Driver/Inc/stm32l0xx_ll_exti.h ****   *         @arg @ref LL_EXTI_LINE_20
 275:/home/tejas_tj/STM32Cube/Repository/STM32Cube_FW_L0_V1.10.0/Drivers/STM32L0xx_HAL_Driver/Inc/stm32l0xx_ll_exti.h ****   *         @arg @ref LL_EXTI_LINE_21
 276:/home/tejas_tj/STM32Cube/Repository/STM32Cube_FW_L0_V1.10.0/Drivers/STM32L0xx_HAL_Driver/Inc/stm32l0xx_ll_exti.h ****   *         @arg @ref LL_EXTI_LINE_22
 277:/home/tejas_tj/STM32Cube/Repository/STM32Cube_FW_L0_V1.10.0/Drivers/STM32L0xx_HAL_Driver/Inc/stm32l0xx_ll_exti.h ****   *         @arg @ref LL_EXTI_LINE_23
 278:/home/tejas_tj/STM32Cube/Repository/STM32Cube_FW_L0_V1.10.0/Drivers/STM32L0xx_HAL_Driver/Inc/stm32l0xx_ll_exti.h ****   *         @arg @ref LL_EXTI_LINE_24
 279:/home/tejas_tj/STM32Cube/Repository/STM32Cube_FW_L0_V1.10.0/Drivers/STM32L0xx_HAL_Driver/Inc/stm32l0xx_ll_exti.h ****   *         @arg @ref LL_EXTI_LINE_25
 280:/home/tejas_tj/STM32Cube/Repository/STM32Cube_FW_L0_V1.10.0/Drivers/STM32L0xx_HAL_Driver/Inc/stm32l0xx_ll_exti.h ****   *         @arg @ref LL_EXTI_LINE_26
 281:/home/tejas_tj/STM32Cube/Repository/STM32Cube_FW_L0_V1.10.0/Drivers/STM32L0xx_HAL_Driver/Inc/stm32l0xx_ll_exti.h ****   *         @arg @ref LL_EXTI_LINE_27
 282:/home/tejas_tj/STM32Cube/Repository/STM32Cube_FW_L0_V1.10.0/Drivers/STM32L0xx_HAL_Driver/Inc/stm32l0xx_ll_exti.h ****   *         @arg @ref LL_EXTI_LINE_28
 283:/home/tejas_tj/STM32Cube/Repository/STM32Cube_FW_L0_V1.10.0/Drivers/STM32L0xx_HAL_Driver/Inc/stm32l0xx_ll_exti.h ****   *         @arg @ref LL_EXTI_LINE_29
 284:/home/tejas_tj/STM32Cube/Repository/STM32Cube_FW_L0_V1.10.0/Drivers/STM32L0xx_HAL_Driver/Inc/stm32l0xx_ll_exti.h ****   *         @arg @ref LL_EXTI_LINE_30
 285:/home/tejas_tj/STM32Cube/Repository/STM32Cube_FW_L0_V1.10.0/Drivers/STM32L0xx_HAL_Driver/Inc/stm32l0xx_ll_exti.h ****   *         @arg @ref LL_EXTI_LINE_31
 286:/home/tejas_tj/STM32Cube/Repository/STM32Cube_FW_L0_V1.10.0/Drivers/STM32L0xx_HAL_Driver/Inc/stm32l0xx_ll_exti.h ****   *         @arg @ref LL_EXTI_LINE_ALL_0_31
 287:/home/tejas_tj/STM32Cube/Repository/STM32Cube_FW_L0_V1.10.0/Drivers/STM32L0xx_HAL_Driver/Inc/stm32l0xx_ll_exti.h ****   * @note   Please check each device line mapping for EXTI Line availability
 288:/home/tejas_tj/STM32Cube/Repository/STM32Cube_FW_L0_V1.10.0/Drivers/STM32L0xx_HAL_Driver/Inc/stm32l0xx_ll_exti.h ****   * @retval None
 289:/home/tejas_tj/STM32Cube/Repository/STM32Cube_FW_L0_V1.10.0/Drivers/STM32L0xx_HAL_Driver/Inc/stm32l0xx_ll_exti.h ****   */
 290:/home/tejas_tj/STM32Cube/Repository/STM32Cube_FW_L0_V1.10.0/Drivers/STM32L0xx_HAL_Driver/Inc/stm32l0xx_ll_exti.h **** __STATIC_INLINE void LL_EXTI_EnableIT_0_31(uint32_t ExtiLine)
 291:/home/tejas_tj/STM32Cube/Repository/STM32Cube_FW_L0_V1.10.0/Drivers/STM32L0xx_HAL_Driver/Inc/stm32l0xx_ll_exti.h **** {
 292:/home/tejas_tj/STM32Cube/Repository/STM32Cube_FW_L0_V1.10.0/Drivers/STM32L0xx_HAL_Driver/Inc/stm32l0xx_ll_exti.h ****   SET_BIT(EXTI->IMR, ExtiLine);
 293:/home/tejas_tj/STM32Cube/Repository/STM32Cube_FW_L0_V1.10.0/Drivers/STM32L0xx_HAL_Driver/Inc/stm32l0xx_ll_exti.h **** }
 294:/home/tejas_tj/STM32Cube/Repository/STM32Cube_FW_L0_V1.10.0/Drivers/STM32L0xx_HAL_Driver/Inc/stm32l0xx_ll_exti.h **** 
 295:/home/tejas_tj/STM32Cube/Repository/STM32Cube_FW_L0_V1.10.0/Drivers/STM32L0xx_HAL_Driver/Inc/stm32l0xx_ll_exti.h **** /**
 296:/home/tejas_tj/STM32Cube/Repository/STM32Cube_FW_L0_V1.10.0/Drivers/STM32L0xx_HAL_Driver/Inc/stm32l0xx_ll_exti.h ****   * @brief  Disable ExtiLine Interrupt request for Lines in range 0 to 31
 297:/home/tejas_tj/STM32Cube/Repository/STM32Cube_FW_L0_V1.10.0/Drivers/STM32L0xx_HAL_Driver/Inc/stm32l0xx_ll_exti.h ****   * @note The reset value for the direct or internal lines (see RM)
 298:/home/tejas_tj/STM32Cube/Repository/STM32Cube_FW_L0_V1.10.0/Drivers/STM32L0xx_HAL_Driver/Inc/stm32l0xx_ll_exti.h ****   *       is set to 1 in order to enable the interrupt by default.
 299:/home/tejas_tj/STM32Cube/Repository/STM32Cube_FW_L0_V1.10.0/Drivers/STM32L0xx_HAL_Driver/Inc/stm32l0xx_ll_exti.h ****   *       Bits are set automatically at Power on.
 300:/home/tejas_tj/STM32Cube/Repository/STM32Cube_FW_L0_V1.10.0/Drivers/STM32L0xx_HAL_Driver/Inc/stm32l0xx_ll_exti.h ****   * @rmtoll IMR         IMx           LL_EXTI_DisableIT_0_31
 301:/home/tejas_tj/STM32Cube/Repository/STM32Cube_FW_L0_V1.10.0/Drivers/STM32L0xx_HAL_Driver/Inc/stm32l0xx_ll_exti.h ****   * @param  ExtiLine This parameter can be one of the following values:
 302:/home/tejas_tj/STM32Cube/Repository/STM32Cube_FW_L0_V1.10.0/Drivers/STM32L0xx_HAL_Driver/Inc/stm32l0xx_ll_exti.h ****   *         @arg @ref LL_EXTI_LINE_0
 303:/home/tejas_tj/STM32Cube/Repository/STM32Cube_FW_L0_V1.10.0/Drivers/STM32L0xx_HAL_Driver/Inc/stm32l0xx_ll_exti.h ****   *         @arg @ref LL_EXTI_LINE_1
 304:/home/tejas_tj/STM32Cube/Repository/STM32Cube_FW_L0_V1.10.0/Drivers/STM32L0xx_HAL_Driver/Inc/stm32l0xx_ll_exti.h ****   *         @arg @ref LL_EXTI_LINE_2
 305:/home/tejas_tj/STM32Cube/Repository/STM32Cube_FW_L0_V1.10.0/Drivers/STM32L0xx_HAL_Driver/Inc/stm32l0xx_ll_exti.h ****   *         @arg @ref LL_EXTI_LINE_3
 306:/home/tejas_tj/STM32Cube/Repository/STM32Cube_FW_L0_V1.10.0/Drivers/STM32L0xx_HAL_Driver/Inc/stm32l0xx_ll_exti.h ****   *         @arg @ref LL_EXTI_LINE_4
 307:/home/tejas_tj/STM32Cube/Repository/STM32Cube_FW_L0_V1.10.0/Drivers/STM32L0xx_HAL_Driver/Inc/stm32l0xx_ll_exti.h ****   *         @arg @ref LL_EXTI_LINE_5
 308:/home/tejas_tj/STM32Cube/Repository/STM32Cube_FW_L0_V1.10.0/Drivers/STM32L0xx_HAL_Driver/Inc/stm32l0xx_ll_exti.h ****   *         @arg @ref LL_EXTI_LINE_6
 309:/home/tejas_tj/STM32Cube/Repository/STM32Cube_FW_L0_V1.10.0/Drivers/STM32L0xx_HAL_Driver/Inc/stm32l0xx_ll_exti.h ****   *         @arg @ref LL_EXTI_LINE_7
 310:/home/tejas_tj/STM32Cube/Repository/STM32Cube_FW_L0_V1.10.0/Drivers/STM32L0xx_HAL_Driver/Inc/stm32l0xx_ll_exti.h ****   *         @arg @ref LL_EXTI_LINE_8
 311:/home/tejas_tj/STM32Cube/Repository/STM32Cube_FW_L0_V1.10.0/Drivers/STM32L0xx_HAL_Driver/Inc/stm32l0xx_ll_exti.h ****   *         @arg @ref LL_EXTI_LINE_9
 312:/home/tejas_tj/STM32Cube/Repository/STM32Cube_FW_L0_V1.10.0/Drivers/STM32L0xx_HAL_Driver/Inc/stm32l0xx_ll_exti.h ****   *         @arg @ref LL_EXTI_LINE_10
 313:/home/tejas_tj/STM32Cube/Repository/STM32Cube_FW_L0_V1.10.0/Drivers/STM32L0xx_HAL_Driver/Inc/stm32l0xx_ll_exti.h ****   *         @arg @ref LL_EXTI_LINE_11
 314:/home/tejas_tj/STM32Cube/Repository/STM32Cube_FW_L0_V1.10.0/Drivers/STM32L0xx_HAL_Driver/Inc/stm32l0xx_ll_exti.h ****   *         @arg @ref LL_EXTI_LINE_12
 315:/home/tejas_tj/STM32Cube/Repository/STM32Cube_FW_L0_V1.10.0/Drivers/STM32L0xx_HAL_Driver/Inc/stm32l0xx_ll_exti.h ****   *         @arg @ref LL_EXTI_LINE_13
 316:/home/tejas_tj/STM32Cube/Repository/STM32Cube_FW_L0_V1.10.0/Drivers/STM32L0xx_HAL_Driver/Inc/stm32l0xx_ll_exti.h ****   *         @arg @ref LL_EXTI_LINE_14
 317:/home/tejas_tj/STM32Cube/Repository/STM32Cube_FW_L0_V1.10.0/Drivers/STM32L0xx_HAL_Driver/Inc/stm32l0xx_ll_exti.h ****   *         @arg @ref LL_EXTI_LINE_15
 318:/home/tejas_tj/STM32Cube/Repository/STM32Cube_FW_L0_V1.10.0/Drivers/STM32L0xx_HAL_Driver/Inc/stm32l0xx_ll_exti.h ****   *         @arg @ref LL_EXTI_LINE_16
 319:/home/tejas_tj/STM32Cube/Repository/STM32Cube_FW_L0_V1.10.0/Drivers/STM32L0xx_HAL_Driver/Inc/stm32l0xx_ll_exti.h ****   *         @arg @ref LL_EXTI_LINE_17
 320:/home/tejas_tj/STM32Cube/Repository/STM32Cube_FW_L0_V1.10.0/Drivers/STM32L0xx_HAL_Driver/Inc/stm32l0xx_ll_exti.h ****   *         @arg @ref LL_EXTI_LINE_18
 321:/home/tejas_tj/STM32Cube/Repository/STM32Cube_FW_L0_V1.10.0/Drivers/STM32L0xx_HAL_Driver/Inc/stm32l0xx_ll_exti.h ****   *         @arg @ref LL_EXTI_LINE_19
 322:/home/tejas_tj/STM32Cube/Repository/STM32Cube_FW_L0_V1.10.0/Drivers/STM32L0xx_HAL_Driver/Inc/stm32l0xx_ll_exti.h ****   *         @arg @ref LL_EXTI_LINE_20
 323:/home/tejas_tj/STM32Cube/Repository/STM32Cube_FW_L0_V1.10.0/Drivers/STM32L0xx_HAL_Driver/Inc/stm32l0xx_ll_exti.h ****   *         @arg @ref LL_EXTI_LINE_21
 324:/home/tejas_tj/STM32Cube/Repository/STM32Cube_FW_L0_V1.10.0/Drivers/STM32L0xx_HAL_Driver/Inc/stm32l0xx_ll_exti.h ****   *         @arg @ref LL_EXTI_LINE_22
 325:/home/tejas_tj/STM32Cube/Repository/STM32Cube_FW_L0_V1.10.0/Drivers/STM32L0xx_HAL_Driver/Inc/stm32l0xx_ll_exti.h ****   *         @arg @ref LL_EXTI_LINE_23
 326:/home/tejas_tj/STM32Cube/Repository/STM32Cube_FW_L0_V1.10.0/Drivers/STM32L0xx_HAL_Driver/Inc/stm32l0xx_ll_exti.h ****   *         @arg @ref LL_EXTI_LINE_24
 327:/home/tejas_tj/STM32Cube/Repository/STM32Cube_FW_L0_V1.10.0/Drivers/STM32L0xx_HAL_Driver/Inc/stm32l0xx_ll_exti.h ****   *         @arg @ref LL_EXTI_LINE_25
 328:/home/tejas_tj/STM32Cube/Repository/STM32Cube_FW_L0_V1.10.0/Drivers/STM32L0xx_HAL_Driver/Inc/stm32l0xx_ll_exti.h ****   *         @arg @ref LL_EXTI_LINE_26
 329:/home/tejas_tj/STM32Cube/Repository/STM32Cube_FW_L0_V1.10.0/Drivers/STM32L0xx_HAL_Driver/Inc/stm32l0xx_ll_exti.h ****   *         @arg @ref LL_EXTI_LINE_27
ARM GAS  /tmp/ccUHhNY0.s 			page 12


 330:/home/tejas_tj/STM32Cube/Repository/STM32Cube_FW_L0_V1.10.0/Drivers/STM32L0xx_HAL_Driver/Inc/stm32l0xx_ll_exti.h ****   *         @arg @ref LL_EXTI_LINE_28
 331:/home/tejas_tj/STM32Cube/Repository/STM32Cube_FW_L0_V1.10.0/Drivers/STM32L0xx_HAL_Driver/Inc/stm32l0xx_ll_exti.h ****   *         @arg @ref LL_EXTI_LINE_29
 332:/home/tejas_tj/STM32Cube/Repository/STM32Cube_FW_L0_V1.10.0/Drivers/STM32L0xx_HAL_Driver/Inc/stm32l0xx_ll_exti.h ****   *         @arg @ref LL_EXTI_LINE_30
 333:/home/tejas_tj/STM32Cube/Repository/STM32Cube_FW_L0_V1.10.0/Drivers/STM32L0xx_HAL_Driver/Inc/stm32l0xx_ll_exti.h ****   *         @arg @ref LL_EXTI_LINE_31
 334:/home/tejas_tj/STM32Cube/Repository/STM32Cube_FW_L0_V1.10.0/Drivers/STM32L0xx_HAL_Driver/Inc/stm32l0xx_ll_exti.h ****   *         @arg @ref LL_EXTI_LINE_ALL_0_31
 335:/home/tejas_tj/STM32Cube/Repository/STM32Cube_FW_L0_V1.10.0/Drivers/STM32L0xx_HAL_Driver/Inc/stm32l0xx_ll_exti.h ****   * @note   Please check each device line mapping for EXTI Line availability
 336:/home/tejas_tj/STM32Cube/Repository/STM32Cube_FW_L0_V1.10.0/Drivers/STM32L0xx_HAL_Driver/Inc/stm32l0xx_ll_exti.h ****   * @retval None
 337:/home/tejas_tj/STM32Cube/Repository/STM32Cube_FW_L0_V1.10.0/Drivers/STM32L0xx_HAL_Driver/Inc/stm32l0xx_ll_exti.h ****   */
 338:/home/tejas_tj/STM32Cube/Repository/STM32Cube_FW_L0_V1.10.0/Drivers/STM32L0xx_HAL_Driver/Inc/stm32l0xx_ll_exti.h **** __STATIC_INLINE void LL_EXTI_DisableIT_0_31(uint32_t ExtiLine)
 339:/home/tejas_tj/STM32Cube/Repository/STM32Cube_FW_L0_V1.10.0/Drivers/STM32L0xx_HAL_Driver/Inc/stm32l0xx_ll_exti.h **** {
 340:/home/tejas_tj/STM32Cube/Repository/STM32Cube_FW_L0_V1.10.0/Drivers/STM32L0xx_HAL_Driver/Inc/stm32l0xx_ll_exti.h ****   CLEAR_BIT(EXTI->IMR, ExtiLine);
 341:/home/tejas_tj/STM32Cube/Repository/STM32Cube_FW_L0_V1.10.0/Drivers/STM32L0xx_HAL_Driver/Inc/stm32l0xx_ll_exti.h **** }
 342:/home/tejas_tj/STM32Cube/Repository/STM32Cube_FW_L0_V1.10.0/Drivers/STM32L0xx_HAL_Driver/Inc/stm32l0xx_ll_exti.h **** 
 343:/home/tejas_tj/STM32Cube/Repository/STM32Cube_FW_L0_V1.10.0/Drivers/STM32L0xx_HAL_Driver/Inc/stm32l0xx_ll_exti.h **** 
 344:/home/tejas_tj/STM32Cube/Repository/STM32Cube_FW_L0_V1.10.0/Drivers/STM32L0xx_HAL_Driver/Inc/stm32l0xx_ll_exti.h **** /**
 345:/home/tejas_tj/STM32Cube/Repository/STM32Cube_FW_L0_V1.10.0/Drivers/STM32L0xx_HAL_Driver/Inc/stm32l0xx_ll_exti.h ****   * @brief  Indicate if ExtiLine Interrupt request is enabled for Lines in range 0 to 31
 346:/home/tejas_tj/STM32Cube/Repository/STM32Cube_FW_L0_V1.10.0/Drivers/STM32L0xx_HAL_Driver/Inc/stm32l0xx_ll_exti.h ****   * @note The reset value for the direct or internal lines (see RM)
 347:/home/tejas_tj/STM32Cube/Repository/STM32Cube_FW_L0_V1.10.0/Drivers/STM32L0xx_HAL_Driver/Inc/stm32l0xx_ll_exti.h ****   *       is set to 1 in order to enable the interrupt by default.
 348:/home/tejas_tj/STM32Cube/Repository/STM32Cube_FW_L0_V1.10.0/Drivers/STM32L0xx_HAL_Driver/Inc/stm32l0xx_ll_exti.h ****   *       Bits are set automatically at Power on.
 349:/home/tejas_tj/STM32Cube/Repository/STM32Cube_FW_L0_V1.10.0/Drivers/STM32L0xx_HAL_Driver/Inc/stm32l0xx_ll_exti.h ****   * @rmtoll IMR         IMx           LL_EXTI_IsEnabledIT_0_31
 350:/home/tejas_tj/STM32Cube/Repository/STM32Cube_FW_L0_V1.10.0/Drivers/STM32L0xx_HAL_Driver/Inc/stm32l0xx_ll_exti.h ****   * @param  ExtiLine This parameter can be one of the following values:
 351:/home/tejas_tj/STM32Cube/Repository/STM32Cube_FW_L0_V1.10.0/Drivers/STM32L0xx_HAL_Driver/Inc/stm32l0xx_ll_exti.h ****   *         @arg @ref LL_EXTI_LINE_0
 352:/home/tejas_tj/STM32Cube/Repository/STM32Cube_FW_L0_V1.10.0/Drivers/STM32L0xx_HAL_Driver/Inc/stm32l0xx_ll_exti.h ****   *         @arg @ref LL_EXTI_LINE_1
 353:/home/tejas_tj/STM32Cube/Repository/STM32Cube_FW_L0_V1.10.0/Drivers/STM32L0xx_HAL_Driver/Inc/stm32l0xx_ll_exti.h ****   *         @arg @ref LL_EXTI_LINE_2
 354:/home/tejas_tj/STM32Cube/Repository/STM32Cube_FW_L0_V1.10.0/Drivers/STM32L0xx_HAL_Driver/Inc/stm32l0xx_ll_exti.h ****   *         @arg @ref LL_EXTI_LINE_3
 355:/home/tejas_tj/STM32Cube/Repository/STM32Cube_FW_L0_V1.10.0/Drivers/STM32L0xx_HAL_Driver/Inc/stm32l0xx_ll_exti.h ****   *         @arg @ref LL_EXTI_LINE_4
 356:/home/tejas_tj/STM32Cube/Repository/STM32Cube_FW_L0_V1.10.0/Drivers/STM32L0xx_HAL_Driver/Inc/stm32l0xx_ll_exti.h ****   *         @arg @ref LL_EXTI_LINE_5
 357:/home/tejas_tj/STM32Cube/Repository/STM32Cube_FW_L0_V1.10.0/Drivers/STM32L0xx_HAL_Driver/Inc/stm32l0xx_ll_exti.h ****   *         @arg @ref LL_EXTI_LINE_6
 358:/home/tejas_tj/STM32Cube/Repository/STM32Cube_FW_L0_V1.10.0/Drivers/STM32L0xx_HAL_Driver/Inc/stm32l0xx_ll_exti.h ****   *         @arg @ref LL_EXTI_LINE_7
 359:/home/tejas_tj/STM32Cube/Repository/STM32Cube_FW_L0_V1.10.0/Drivers/STM32L0xx_HAL_Driver/Inc/stm32l0xx_ll_exti.h ****   *         @arg @ref LL_EXTI_LINE_8
 360:/home/tejas_tj/STM32Cube/Repository/STM32Cube_FW_L0_V1.10.0/Drivers/STM32L0xx_HAL_Driver/Inc/stm32l0xx_ll_exti.h ****   *         @arg @ref LL_EXTI_LINE_9
 361:/home/tejas_tj/STM32Cube/Repository/STM32Cube_FW_L0_V1.10.0/Drivers/STM32L0xx_HAL_Driver/Inc/stm32l0xx_ll_exti.h ****   *         @arg @ref LL_EXTI_LINE_10
 362:/home/tejas_tj/STM32Cube/Repository/STM32Cube_FW_L0_V1.10.0/Drivers/STM32L0xx_HAL_Driver/Inc/stm32l0xx_ll_exti.h ****   *         @arg @ref LL_EXTI_LINE_11
 363:/home/tejas_tj/STM32Cube/Repository/STM32Cube_FW_L0_V1.10.0/Drivers/STM32L0xx_HAL_Driver/Inc/stm32l0xx_ll_exti.h ****   *         @arg @ref LL_EXTI_LINE_12
 364:/home/tejas_tj/STM32Cube/Repository/STM32Cube_FW_L0_V1.10.0/Drivers/STM32L0xx_HAL_Driver/Inc/stm32l0xx_ll_exti.h ****   *         @arg @ref LL_EXTI_LINE_13
 365:/home/tejas_tj/STM32Cube/Repository/STM32Cube_FW_L0_V1.10.0/Drivers/STM32L0xx_HAL_Driver/Inc/stm32l0xx_ll_exti.h ****   *         @arg @ref LL_EXTI_LINE_14
 366:/home/tejas_tj/STM32Cube/Repository/STM32Cube_FW_L0_V1.10.0/Drivers/STM32L0xx_HAL_Driver/Inc/stm32l0xx_ll_exti.h ****   *         @arg @ref LL_EXTI_LINE_15
 367:/home/tejas_tj/STM32Cube/Repository/STM32Cube_FW_L0_V1.10.0/Drivers/STM32L0xx_HAL_Driver/Inc/stm32l0xx_ll_exti.h ****   *         @arg @ref LL_EXTI_LINE_16
 368:/home/tejas_tj/STM32Cube/Repository/STM32Cube_FW_L0_V1.10.0/Drivers/STM32L0xx_HAL_Driver/Inc/stm32l0xx_ll_exti.h ****   *         @arg @ref LL_EXTI_LINE_17
 369:/home/tejas_tj/STM32Cube/Repository/STM32Cube_FW_L0_V1.10.0/Drivers/STM32L0xx_HAL_Driver/Inc/stm32l0xx_ll_exti.h ****   *         @arg @ref LL_EXTI_LINE_18
 370:/home/tejas_tj/STM32Cube/Repository/STM32Cube_FW_L0_V1.10.0/Drivers/STM32L0xx_HAL_Driver/Inc/stm32l0xx_ll_exti.h ****   *         @arg @ref LL_EXTI_LINE_19
 371:/home/tejas_tj/STM32Cube/Repository/STM32Cube_FW_L0_V1.10.0/Drivers/STM32L0xx_HAL_Driver/Inc/stm32l0xx_ll_exti.h ****   *         @arg @ref LL_EXTI_LINE_20
 372:/home/tejas_tj/STM32Cube/Repository/STM32Cube_FW_L0_V1.10.0/Drivers/STM32L0xx_HAL_Driver/Inc/stm32l0xx_ll_exti.h ****   *         @arg @ref LL_EXTI_LINE_21
 373:/home/tejas_tj/STM32Cube/Repository/STM32Cube_FW_L0_V1.10.0/Drivers/STM32L0xx_HAL_Driver/Inc/stm32l0xx_ll_exti.h ****   *         @arg @ref LL_EXTI_LINE_22
 374:/home/tejas_tj/STM32Cube/Repository/STM32Cube_FW_L0_V1.10.0/Drivers/STM32L0xx_HAL_Driver/Inc/stm32l0xx_ll_exti.h ****   *         @arg @ref LL_EXTI_LINE_23
 375:/home/tejas_tj/STM32Cube/Repository/STM32Cube_FW_L0_V1.10.0/Drivers/STM32L0xx_HAL_Driver/Inc/stm32l0xx_ll_exti.h ****   *         @arg @ref LL_EXTI_LINE_24
 376:/home/tejas_tj/STM32Cube/Repository/STM32Cube_FW_L0_V1.10.0/Drivers/STM32L0xx_HAL_Driver/Inc/stm32l0xx_ll_exti.h ****   *         @arg @ref LL_EXTI_LINE_25
 377:/home/tejas_tj/STM32Cube/Repository/STM32Cube_FW_L0_V1.10.0/Drivers/STM32L0xx_HAL_Driver/Inc/stm32l0xx_ll_exti.h ****   *         @arg @ref LL_EXTI_LINE_26
 378:/home/tejas_tj/STM32Cube/Repository/STM32Cube_FW_L0_V1.10.0/Drivers/STM32L0xx_HAL_Driver/Inc/stm32l0xx_ll_exti.h ****   *         @arg @ref LL_EXTI_LINE_27
 379:/home/tejas_tj/STM32Cube/Repository/STM32Cube_FW_L0_V1.10.0/Drivers/STM32L0xx_HAL_Driver/Inc/stm32l0xx_ll_exti.h ****   *         @arg @ref LL_EXTI_LINE_28
 380:/home/tejas_tj/STM32Cube/Repository/STM32Cube_FW_L0_V1.10.0/Drivers/STM32L0xx_HAL_Driver/Inc/stm32l0xx_ll_exti.h ****   *         @arg @ref LL_EXTI_LINE_29
 381:/home/tejas_tj/STM32Cube/Repository/STM32Cube_FW_L0_V1.10.0/Drivers/STM32L0xx_HAL_Driver/Inc/stm32l0xx_ll_exti.h ****   *         @arg @ref LL_EXTI_LINE_30
 382:/home/tejas_tj/STM32Cube/Repository/STM32Cube_FW_L0_V1.10.0/Drivers/STM32L0xx_HAL_Driver/Inc/stm32l0xx_ll_exti.h ****   *         @arg @ref LL_EXTI_LINE_31
 383:/home/tejas_tj/STM32Cube/Repository/STM32Cube_FW_L0_V1.10.0/Drivers/STM32L0xx_HAL_Driver/Inc/stm32l0xx_ll_exti.h ****   *         @arg @ref LL_EXTI_LINE_ALL_0_31
 384:/home/tejas_tj/STM32Cube/Repository/STM32Cube_FW_L0_V1.10.0/Drivers/STM32L0xx_HAL_Driver/Inc/stm32l0xx_ll_exti.h ****   * @note   Please check each device line mapping for EXTI Line availability
 385:/home/tejas_tj/STM32Cube/Repository/STM32Cube_FW_L0_V1.10.0/Drivers/STM32L0xx_HAL_Driver/Inc/stm32l0xx_ll_exti.h ****   * @retval State of bit (1 or 0).
 386:/home/tejas_tj/STM32Cube/Repository/STM32Cube_FW_L0_V1.10.0/Drivers/STM32L0xx_HAL_Driver/Inc/stm32l0xx_ll_exti.h ****   */
ARM GAS  /tmp/ccUHhNY0.s 			page 13


 387:/home/tejas_tj/STM32Cube/Repository/STM32Cube_FW_L0_V1.10.0/Drivers/STM32L0xx_HAL_Driver/Inc/stm32l0xx_ll_exti.h **** __STATIC_INLINE uint32_t LL_EXTI_IsEnabledIT_0_31(uint32_t ExtiLine)
 388:/home/tejas_tj/STM32Cube/Repository/STM32Cube_FW_L0_V1.10.0/Drivers/STM32L0xx_HAL_Driver/Inc/stm32l0xx_ll_exti.h **** {
 389:/home/tejas_tj/STM32Cube/Repository/STM32Cube_FW_L0_V1.10.0/Drivers/STM32L0xx_HAL_Driver/Inc/stm32l0xx_ll_exti.h ****   return (READ_BIT(EXTI->IMR, ExtiLine) == (ExtiLine));
 390:/home/tejas_tj/STM32Cube/Repository/STM32Cube_FW_L0_V1.10.0/Drivers/STM32L0xx_HAL_Driver/Inc/stm32l0xx_ll_exti.h **** }
 391:/home/tejas_tj/STM32Cube/Repository/STM32Cube_FW_L0_V1.10.0/Drivers/STM32L0xx_HAL_Driver/Inc/stm32l0xx_ll_exti.h **** 
 392:/home/tejas_tj/STM32Cube/Repository/STM32Cube_FW_L0_V1.10.0/Drivers/STM32L0xx_HAL_Driver/Inc/stm32l0xx_ll_exti.h **** 
 393:/home/tejas_tj/STM32Cube/Repository/STM32Cube_FW_L0_V1.10.0/Drivers/STM32L0xx_HAL_Driver/Inc/stm32l0xx_ll_exti.h **** /**
 394:/home/tejas_tj/STM32Cube/Repository/STM32Cube_FW_L0_V1.10.0/Drivers/STM32L0xx_HAL_Driver/Inc/stm32l0xx_ll_exti.h ****   * @}
 395:/home/tejas_tj/STM32Cube/Repository/STM32Cube_FW_L0_V1.10.0/Drivers/STM32L0xx_HAL_Driver/Inc/stm32l0xx_ll_exti.h ****   */
 396:/home/tejas_tj/STM32Cube/Repository/STM32Cube_FW_L0_V1.10.0/Drivers/STM32L0xx_HAL_Driver/Inc/stm32l0xx_ll_exti.h **** 
 397:/home/tejas_tj/STM32Cube/Repository/STM32Cube_FW_L0_V1.10.0/Drivers/STM32L0xx_HAL_Driver/Inc/stm32l0xx_ll_exti.h **** /** @defgroup EXTI_LL_EF_Event_Management Event_Management
 398:/home/tejas_tj/STM32Cube/Repository/STM32Cube_FW_L0_V1.10.0/Drivers/STM32L0xx_HAL_Driver/Inc/stm32l0xx_ll_exti.h ****   * @{
 399:/home/tejas_tj/STM32Cube/Repository/STM32Cube_FW_L0_V1.10.0/Drivers/STM32L0xx_HAL_Driver/Inc/stm32l0xx_ll_exti.h ****   */
 400:/home/tejas_tj/STM32Cube/Repository/STM32Cube_FW_L0_V1.10.0/Drivers/STM32L0xx_HAL_Driver/Inc/stm32l0xx_ll_exti.h **** 
 401:/home/tejas_tj/STM32Cube/Repository/STM32Cube_FW_L0_V1.10.0/Drivers/STM32L0xx_HAL_Driver/Inc/stm32l0xx_ll_exti.h **** /**
 402:/home/tejas_tj/STM32Cube/Repository/STM32Cube_FW_L0_V1.10.0/Drivers/STM32L0xx_HAL_Driver/Inc/stm32l0xx_ll_exti.h ****   * @brief  Enable ExtiLine Event request for Lines in range 0 to 31
 403:/home/tejas_tj/STM32Cube/Repository/STM32Cube_FW_L0_V1.10.0/Drivers/STM32L0xx_HAL_Driver/Inc/stm32l0xx_ll_exti.h ****   * @rmtoll EMR         EMx           LL_EXTI_EnableEvent_0_31
 404:/home/tejas_tj/STM32Cube/Repository/STM32Cube_FW_L0_V1.10.0/Drivers/STM32L0xx_HAL_Driver/Inc/stm32l0xx_ll_exti.h ****   * @param  ExtiLine This parameter can be one of the following values:
 405:/home/tejas_tj/STM32Cube/Repository/STM32Cube_FW_L0_V1.10.0/Drivers/STM32L0xx_HAL_Driver/Inc/stm32l0xx_ll_exti.h ****   *         @arg @ref LL_EXTI_LINE_0
 406:/home/tejas_tj/STM32Cube/Repository/STM32Cube_FW_L0_V1.10.0/Drivers/STM32L0xx_HAL_Driver/Inc/stm32l0xx_ll_exti.h ****   *         @arg @ref LL_EXTI_LINE_1
 407:/home/tejas_tj/STM32Cube/Repository/STM32Cube_FW_L0_V1.10.0/Drivers/STM32L0xx_HAL_Driver/Inc/stm32l0xx_ll_exti.h ****   *         @arg @ref LL_EXTI_LINE_2
 408:/home/tejas_tj/STM32Cube/Repository/STM32Cube_FW_L0_V1.10.0/Drivers/STM32L0xx_HAL_Driver/Inc/stm32l0xx_ll_exti.h ****   *         @arg @ref LL_EXTI_LINE_3
 409:/home/tejas_tj/STM32Cube/Repository/STM32Cube_FW_L0_V1.10.0/Drivers/STM32L0xx_HAL_Driver/Inc/stm32l0xx_ll_exti.h ****   *         @arg @ref LL_EXTI_LINE_4
 410:/home/tejas_tj/STM32Cube/Repository/STM32Cube_FW_L0_V1.10.0/Drivers/STM32L0xx_HAL_Driver/Inc/stm32l0xx_ll_exti.h ****   *         @arg @ref LL_EXTI_LINE_5
 411:/home/tejas_tj/STM32Cube/Repository/STM32Cube_FW_L0_V1.10.0/Drivers/STM32L0xx_HAL_Driver/Inc/stm32l0xx_ll_exti.h ****   *         @arg @ref LL_EXTI_LINE_6
 412:/home/tejas_tj/STM32Cube/Repository/STM32Cube_FW_L0_V1.10.0/Drivers/STM32L0xx_HAL_Driver/Inc/stm32l0xx_ll_exti.h ****   *         @arg @ref LL_EXTI_LINE_7
 413:/home/tejas_tj/STM32Cube/Repository/STM32Cube_FW_L0_V1.10.0/Drivers/STM32L0xx_HAL_Driver/Inc/stm32l0xx_ll_exti.h ****   *         @arg @ref LL_EXTI_LINE_8
 414:/home/tejas_tj/STM32Cube/Repository/STM32Cube_FW_L0_V1.10.0/Drivers/STM32L0xx_HAL_Driver/Inc/stm32l0xx_ll_exti.h ****   *         @arg @ref LL_EXTI_LINE_9
 415:/home/tejas_tj/STM32Cube/Repository/STM32Cube_FW_L0_V1.10.0/Drivers/STM32L0xx_HAL_Driver/Inc/stm32l0xx_ll_exti.h ****   *         @arg @ref LL_EXTI_LINE_10
 416:/home/tejas_tj/STM32Cube/Repository/STM32Cube_FW_L0_V1.10.0/Drivers/STM32L0xx_HAL_Driver/Inc/stm32l0xx_ll_exti.h ****   *         @arg @ref LL_EXTI_LINE_11
 417:/home/tejas_tj/STM32Cube/Repository/STM32Cube_FW_L0_V1.10.0/Drivers/STM32L0xx_HAL_Driver/Inc/stm32l0xx_ll_exti.h ****   *         @arg @ref LL_EXTI_LINE_12
 418:/home/tejas_tj/STM32Cube/Repository/STM32Cube_FW_L0_V1.10.0/Drivers/STM32L0xx_HAL_Driver/Inc/stm32l0xx_ll_exti.h ****   *         @arg @ref LL_EXTI_LINE_13
 419:/home/tejas_tj/STM32Cube/Repository/STM32Cube_FW_L0_V1.10.0/Drivers/STM32L0xx_HAL_Driver/Inc/stm32l0xx_ll_exti.h ****   *         @arg @ref LL_EXTI_LINE_14
 420:/home/tejas_tj/STM32Cube/Repository/STM32Cube_FW_L0_V1.10.0/Drivers/STM32L0xx_HAL_Driver/Inc/stm32l0xx_ll_exti.h ****   *         @arg @ref LL_EXTI_LINE_15
 421:/home/tejas_tj/STM32Cube/Repository/STM32Cube_FW_L0_V1.10.0/Drivers/STM32L0xx_HAL_Driver/Inc/stm32l0xx_ll_exti.h ****   *         @arg @ref LL_EXTI_LINE_16
 422:/home/tejas_tj/STM32Cube/Repository/STM32Cube_FW_L0_V1.10.0/Drivers/STM32L0xx_HAL_Driver/Inc/stm32l0xx_ll_exti.h ****   *         @arg @ref LL_EXTI_LINE_17
 423:/home/tejas_tj/STM32Cube/Repository/STM32Cube_FW_L0_V1.10.0/Drivers/STM32L0xx_HAL_Driver/Inc/stm32l0xx_ll_exti.h ****   *         @arg @ref LL_EXTI_LINE_18
 424:/home/tejas_tj/STM32Cube/Repository/STM32Cube_FW_L0_V1.10.0/Drivers/STM32L0xx_HAL_Driver/Inc/stm32l0xx_ll_exti.h ****   *         @arg @ref LL_EXTI_LINE_19
 425:/home/tejas_tj/STM32Cube/Repository/STM32Cube_FW_L0_V1.10.0/Drivers/STM32L0xx_HAL_Driver/Inc/stm32l0xx_ll_exti.h ****   *         @arg @ref LL_EXTI_LINE_20
 426:/home/tejas_tj/STM32Cube/Repository/STM32Cube_FW_L0_V1.10.0/Drivers/STM32L0xx_HAL_Driver/Inc/stm32l0xx_ll_exti.h ****   *         @arg @ref LL_EXTI_LINE_21
 427:/home/tejas_tj/STM32Cube/Repository/STM32Cube_FW_L0_V1.10.0/Drivers/STM32L0xx_HAL_Driver/Inc/stm32l0xx_ll_exti.h ****   *         @arg @ref LL_EXTI_LINE_22
 428:/home/tejas_tj/STM32Cube/Repository/STM32Cube_FW_L0_V1.10.0/Drivers/STM32L0xx_HAL_Driver/Inc/stm32l0xx_ll_exti.h ****   *         @arg @ref LL_EXTI_LINE_23
 429:/home/tejas_tj/STM32Cube/Repository/STM32Cube_FW_L0_V1.10.0/Drivers/STM32L0xx_HAL_Driver/Inc/stm32l0xx_ll_exti.h ****   *         @arg @ref LL_EXTI_LINE_24
 430:/home/tejas_tj/STM32Cube/Repository/STM32Cube_FW_L0_V1.10.0/Drivers/STM32L0xx_HAL_Driver/Inc/stm32l0xx_ll_exti.h ****   *         @arg @ref LL_EXTI_LINE_25
 431:/home/tejas_tj/STM32Cube/Repository/STM32Cube_FW_L0_V1.10.0/Drivers/STM32L0xx_HAL_Driver/Inc/stm32l0xx_ll_exti.h ****   *         @arg @ref LL_EXTI_LINE_26
 432:/home/tejas_tj/STM32Cube/Repository/STM32Cube_FW_L0_V1.10.0/Drivers/STM32L0xx_HAL_Driver/Inc/stm32l0xx_ll_exti.h ****   *         @arg @ref LL_EXTI_LINE_27
 433:/home/tejas_tj/STM32Cube/Repository/STM32Cube_FW_L0_V1.10.0/Drivers/STM32L0xx_HAL_Driver/Inc/stm32l0xx_ll_exti.h ****   *         @arg @ref LL_EXTI_LINE_28
 434:/home/tejas_tj/STM32Cube/Repository/STM32Cube_FW_L0_V1.10.0/Drivers/STM32L0xx_HAL_Driver/Inc/stm32l0xx_ll_exti.h ****   *         @arg @ref LL_EXTI_LINE_29
 435:/home/tejas_tj/STM32Cube/Repository/STM32Cube_FW_L0_V1.10.0/Drivers/STM32L0xx_HAL_Driver/Inc/stm32l0xx_ll_exti.h ****   *         @arg @ref LL_EXTI_LINE_30
 436:/home/tejas_tj/STM32Cube/Repository/STM32Cube_FW_L0_V1.10.0/Drivers/STM32L0xx_HAL_Driver/Inc/stm32l0xx_ll_exti.h ****   *         @arg @ref LL_EXTI_LINE_31
 437:/home/tejas_tj/STM32Cube/Repository/STM32Cube_FW_L0_V1.10.0/Drivers/STM32L0xx_HAL_Driver/Inc/stm32l0xx_ll_exti.h ****   *         @arg @ref LL_EXTI_LINE_ALL_0_31
 438:/home/tejas_tj/STM32Cube/Repository/STM32Cube_FW_L0_V1.10.0/Drivers/STM32L0xx_HAL_Driver/Inc/stm32l0xx_ll_exti.h ****   * @note   Please check each device line mapping for EXTI Line availability
 439:/home/tejas_tj/STM32Cube/Repository/STM32Cube_FW_L0_V1.10.0/Drivers/STM32L0xx_HAL_Driver/Inc/stm32l0xx_ll_exti.h ****   * @retval None
 440:/home/tejas_tj/STM32Cube/Repository/STM32Cube_FW_L0_V1.10.0/Drivers/STM32L0xx_HAL_Driver/Inc/stm32l0xx_ll_exti.h ****   */
 441:/home/tejas_tj/STM32Cube/Repository/STM32Cube_FW_L0_V1.10.0/Drivers/STM32L0xx_HAL_Driver/Inc/stm32l0xx_ll_exti.h **** __STATIC_INLINE void LL_EXTI_EnableEvent_0_31(uint32_t ExtiLine)
 442:/home/tejas_tj/STM32Cube/Repository/STM32Cube_FW_L0_V1.10.0/Drivers/STM32L0xx_HAL_Driver/Inc/stm32l0xx_ll_exti.h **** {
 443:/home/tejas_tj/STM32Cube/Repository/STM32Cube_FW_L0_V1.10.0/Drivers/STM32L0xx_HAL_Driver/Inc/stm32l0xx_ll_exti.h ****   SET_BIT(EXTI->EMR, ExtiLine);
ARM GAS  /tmp/ccUHhNY0.s 			page 14


 444:/home/tejas_tj/STM32Cube/Repository/STM32Cube_FW_L0_V1.10.0/Drivers/STM32L0xx_HAL_Driver/Inc/stm32l0xx_ll_exti.h **** 
 445:/home/tejas_tj/STM32Cube/Repository/STM32Cube_FW_L0_V1.10.0/Drivers/STM32L0xx_HAL_Driver/Inc/stm32l0xx_ll_exti.h **** }
 446:/home/tejas_tj/STM32Cube/Repository/STM32Cube_FW_L0_V1.10.0/Drivers/STM32L0xx_HAL_Driver/Inc/stm32l0xx_ll_exti.h **** 
 447:/home/tejas_tj/STM32Cube/Repository/STM32Cube_FW_L0_V1.10.0/Drivers/STM32L0xx_HAL_Driver/Inc/stm32l0xx_ll_exti.h **** 
 448:/home/tejas_tj/STM32Cube/Repository/STM32Cube_FW_L0_V1.10.0/Drivers/STM32L0xx_HAL_Driver/Inc/stm32l0xx_ll_exti.h **** /**
 449:/home/tejas_tj/STM32Cube/Repository/STM32Cube_FW_L0_V1.10.0/Drivers/STM32L0xx_HAL_Driver/Inc/stm32l0xx_ll_exti.h ****   * @brief  Disable ExtiLine Event request for Lines in range 0 to 31
 450:/home/tejas_tj/STM32Cube/Repository/STM32Cube_FW_L0_V1.10.0/Drivers/STM32L0xx_HAL_Driver/Inc/stm32l0xx_ll_exti.h ****   * @rmtoll EMR         EMx           LL_EXTI_DisableEvent_0_31
 451:/home/tejas_tj/STM32Cube/Repository/STM32Cube_FW_L0_V1.10.0/Drivers/STM32L0xx_HAL_Driver/Inc/stm32l0xx_ll_exti.h ****   * @param  ExtiLine This parameter can be one of the following values:
 452:/home/tejas_tj/STM32Cube/Repository/STM32Cube_FW_L0_V1.10.0/Drivers/STM32L0xx_HAL_Driver/Inc/stm32l0xx_ll_exti.h ****   *         @arg @ref LL_EXTI_LINE_0
 453:/home/tejas_tj/STM32Cube/Repository/STM32Cube_FW_L0_V1.10.0/Drivers/STM32L0xx_HAL_Driver/Inc/stm32l0xx_ll_exti.h ****   *         @arg @ref LL_EXTI_LINE_1
 454:/home/tejas_tj/STM32Cube/Repository/STM32Cube_FW_L0_V1.10.0/Drivers/STM32L0xx_HAL_Driver/Inc/stm32l0xx_ll_exti.h ****   *         @arg @ref LL_EXTI_LINE_2
 455:/home/tejas_tj/STM32Cube/Repository/STM32Cube_FW_L0_V1.10.0/Drivers/STM32L0xx_HAL_Driver/Inc/stm32l0xx_ll_exti.h ****   *         @arg @ref LL_EXTI_LINE_3
 456:/home/tejas_tj/STM32Cube/Repository/STM32Cube_FW_L0_V1.10.0/Drivers/STM32L0xx_HAL_Driver/Inc/stm32l0xx_ll_exti.h ****   *         @arg @ref LL_EXTI_LINE_4
 457:/home/tejas_tj/STM32Cube/Repository/STM32Cube_FW_L0_V1.10.0/Drivers/STM32L0xx_HAL_Driver/Inc/stm32l0xx_ll_exti.h ****   *         @arg @ref LL_EXTI_LINE_5
 458:/home/tejas_tj/STM32Cube/Repository/STM32Cube_FW_L0_V1.10.0/Drivers/STM32L0xx_HAL_Driver/Inc/stm32l0xx_ll_exti.h ****   *         @arg @ref LL_EXTI_LINE_6
 459:/home/tejas_tj/STM32Cube/Repository/STM32Cube_FW_L0_V1.10.0/Drivers/STM32L0xx_HAL_Driver/Inc/stm32l0xx_ll_exti.h ****   *         @arg @ref LL_EXTI_LINE_7
 460:/home/tejas_tj/STM32Cube/Repository/STM32Cube_FW_L0_V1.10.0/Drivers/STM32L0xx_HAL_Driver/Inc/stm32l0xx_ll_exti.h ****   *         @arg @ref LL_EXTI_LINE_8
 461:/home/tejas_tj/STM32Cube/Repository/STM32Cube_FW_L0_V1.10.0/Drivers/STM32L0xx_HAL_Driver/Inc/stm32l0xx_ll_exti.h ****   *         @arg @ref LL_EXTI_LINE_9
 462:/home/tejas_tj/STM32Cube/Repository/STM32Cube_FW_L0_V1.10.0/Drivers/STM32L0xx_HAL_Driver/Inc/stm32l0xx_ll_exti.h ****   *         @arg @ref LL_EXTI_LINE_10
 463:/home/tejas_tj/STM32Cube/Repository/STM32Cube_FW_L0_V1.10.0/Drivers/STM32L0xx_HAL_Driver/Inc/stm32l0xx_ll_exti.h ****   *         @arg @ref LL_EXTI_LINE_11
 464:/home/tejas_tj/STM32Cube/Repository/STM32Cube_FW_L0_V1.10.0/Drivers/STM32L0xx_HAL_Driver/Inc/stm32l0xx_ll_exti.h ****   *         @arg @ref LL_EXTI_LINE_12
 465:/home/tejas_tj/STM32Cube/Repository/STM32Cube_FW_L0_V1.10.0/Drivers/STM32L0xx_HAL_Driver/Inc/stm32l0xx_ll_exti.h ****   *         @arg @ref LL_EXTI_LINE_13
 466:/home/tejas_tj/STM32Cube/Repository/STM32Cube_FW_L0_V1.10.0/Drivers/STM32L0xx_HAL_Driver/Inc/stm32l0xx_ll_exti.h ****   *         @arg @ref LL_EXTI_LINE_14
 467:/home/tejas_tj/STM32Cube/Repository/STM32Cube_FW_L0_V1.10.0/Drivers/STM32L0xx_HAL_Driver/Inc/stm32l0xx_ll_exti.h ****   *         @arg @ref LL_EXTI_LINE_15
 468:/home/tejas_tj/STM32Cube/Repository/STM32Cube_FW_L0_V1.10.0/Drivers/STM32L0xx_HAL_Driver/Inc/stm32l0xx_ll_exti.h ****   *         @arg @ref LL_EXTI_LINE_16
 469:/home/tejas_tj/STM32Cube/Repository/STM32Cube_FW_L0_V1.10.0/Drivers/STM32L0xx_HAL_Driver/Inc/stm32l0xx_ll_exti.h ****   *         @arg @ref LL_EXTI_LINE_17
 470:/home/tejas_tj/STM32Cube/Repository/STM32Cube_FW_L0_V1.10.0/Drivers/STM32L0xx_HAL_Driver/Inc/stm32l0xx_ll_exti.h ****   *         @arg @ref LL_EXTI_LINE_18
 471:/home/tejas_tj/STM32Cube/Repository/STM32Cube_FW_L0_V1.10.0/Drivers/STM32L0xx_HAL_Driver/Inc/stm32l0xx_ll_exti.h ****   *         @arg @ref LL_EXTI_LINE_19
 472:/home/tejas_tj/STM32Cube/Repository/STM32Cube_FW_L0_V1.10.0/Drivers/STM32L0xx_HAL_Driver/Inc/stm32l0xx_ll_exti.h ****   *         @arg @ref LL_EXTI_LINE_20
 473:/home/tejas_tj/STM32Cube/Repository/STM32Cube_FW_L0_V1.10.0/Drivers/STM32L0xx_HAL_Driver/Inc/stm32l0xx_ll_exti.h ****   *         @arg @ref LL_EXTI_LINE_21
 474:/home/tejas_tj/STM32Cube/Repository/STM32Cube_FW_L0_V1.10.0/Drivers/STM32L0xx_HAL_Driver/Inc/stm32l0xx_ll_exti.h ****   *         @arg @ref LL_EXTI_LINE_22
 475:/home/tejas_tj/STM32Cube/Repository/STM32Cube_FW_L0_V1.10.0/Drivers/STM32L0xx_HAL_Driver/Inc/stm32l0xx_ll_exti.h ****   *         @arg @ref LL_EXTI_LINE_23
 476:/home/tejas_tj/STM32Cube/Repository/STM32Cube_FW_L0_V1.10.0/Drivers/STM32L0xx_HAL_Driver/Inc/stm32l0xx_ll_exti.h ****   *         @arg @ref LL_EXTI_LINE_24
 477:/home/tejas_tj/STM32Cube/Repository/STM32Cube_FW_L0_V1.10.0/Drivers/STM32L0xx_HAL_Driver/Inc/stm32l0xx_ll_exti.h ****   *         @arg @ref LL_EXTI_LINE_25
 478:/home/tejas_tj/STM32Cube/Repository/STM32Cube_FW_L0_V1.10.0/Drivers/STM32L0xx_HAL_Driver/Inc/stm32l0xx_ll_exti.h ****   *         @arg @ref LL_EXTI_LINE_26
 479:/home/tejas_tj/STM32Cube/Repository/STM32Cube_FW_L0_V1.10.0/Drivers/STM32L0xx_HAL_Driver/Inc/stm32l0xx_ll_exti.h ****   *         @arg @ref LL_EXTI_LINE_27
 480:/home/tejas_tj/STM32Cube/Repository/STM32Cube_FW_L0_V1.10.0/Drivers/STM32L0xx_HAL_Driver/Inc/stm32l0xx_ll_exti.h ****   *         @arg @ref LL_EXTI_LINE_28
 481:/home/tejas_tj/STM32Cube/Repository/STM32Cube_FW_L0_V1.10.0/Drivers/STM32L0xx_HAL_Driver/Inc/stm32l0xx_ll_exti.h ****   *         @arg @ref LL_EXTI_LINE_29
 482:/home/tejas_tj/STM32Cube/Repository/STM32Cube_FW_L0_V1.10.0/Drivers/STM32L0xx_HAL_Driver/Inc/stm32l0xx_ll_exti.h ****   *         @arg @ref LL_EXTI_LINE_30
 483:/home/tejas_tj/STM32Cube/Repository/STM32Cube_FW_L0_V1.10.0/Drivers/STM32L0xx_HAL_Driver/Inc/stm32l0xx_ll_exti.h ****   *         @arg @ref LL_EXTI_LINE_31
 484:/home/tejas_tj/STM32Cube/Repository/STM32Cube_FW_L0_V1.10.0/Drivers/STM32L0xx_HAL_Driver/Inc/stm32l0xx_ll_exti.h ****   *         @arg @ref LL_EXTI_LINE_ALL_0_31
 485:/home/tejas_tj/STM32Cube/Repository/STM32Cube_FW_L0_V1.10.0/Drivers/STM32L0xx_HAL_Driver/Inc/stm32l0xx_ll_exti.h ****   * @note   Please check each device line mapping for EXTI Line availability
 486:/home/tejas_tj/STM32Cube/Repository/STM32Cube_FW_L0_V1.10.0/Drivers/STM32L0xx_HAL_Driver/Inc/stm32l0xx_ll_exti.h ****   * @retval None
 487:/home/tejas_tj/STM32Cube/Repository/STM32Cube_FW_L0_V1.10.0/Drivers/STM32L0xx_HAL_Driver/Inc/stm32l0xx_ll_exti.h ****   */
 488:/home/tejas_tj/STM32Cube/Repository/STM32Cube_FW_L0_V1.10.0/Drivers/STM32L0xx_HAL_Driver/Inc/stm32l0xx_ll_exti.h **** __STATIC_INLINE void LL_EXTI_DisableEvent_0_31(uint32_t ExtiLine)
 489:/home/tejas_tj/STM32Cube/Repository/STM32Cube_FW_L0_V1.10.0/Drivers/STM32L0xx_HAL_Driver/Inc/stm32l0xx_ll_exti.h **** {
 490:/home/tejas_tj/STM32Cube/Repository/STM32Cube_FW_L0_V1.10.0/Drivers/STM32L0xx_HAL_Driver/Inc/stm32l0xx_ll_exti.h ****   CLEAR_BIT(EXTI->EMR, ExtiLine);
 121              		.loc 2 490 0
 122 0034 244A     		ldr	r2, .L20
 123 0036 5168     		ldr	r1, [r2, #4]
 124 0038 9943     		bics	r1, r3
 125 003a 5160     		str	r1, [r2, #4]
 126              	.LVL5:
 127              	.LBE31:
 128              	.LBE30:
 129              	.LBB32:
 130              	.LBB33:
ARM GAS  /tmp/ccUHhNY0.s 			page 15


 292:/home/tejas_tj/STM32Cube/Repository/STM32Cube_FW_L0_V1.10.0/Drivers/STM32L0xx_HAL_Driver/Inc/stm32l0xx_ll_exti.h **** }
 131              		.loc 2 292 0
 132 003c 1368     		ldr	r3, [r2]
 133 003e 0168     		ldr	r1, [r0]
 134 0040 0B43     		orrs	r3, r1
 135 0042 1360     		str	r3, [r2]
 136              	.LVL6:
 137              	.LBE33:
 138              	.LBE32:
 123:/home/tejas_tj/STM32Cube/Repository/STM32Cube_FW_L0_V1.10.0/Drivers/STM32L0xx_HAL_Driver/Src/stm32l0xx_ll_exti.c ****   /* Check the parameters */
 139              		.loc 1 123 0
 140 0044 0123     		movs	r3, #1
 141 0046 EAE7     		b	.L7
 142              	.LVL7:
 143              	.L8:
 144              	.LBB34:
 145              	.LBB35:
 340:/home/tejas_tj/STM32Cube/Repository/STM32Cube_FW_L0_V1.10.0/Drivers/STM32L0xx_HAL_Driver/Inc/stm32l0xx_ll_exti.h **** }
 146              		.loc 2 340 0
 147 0048 1F4A     		ldr	r2, .L20
 148 004a 1168     		ldr	r1, [r2]
 149 004c 9943     		bics	r1, r3
 150 004e 1160     		str	r1, [r2]
 151              	.LVL8:
 152              	.LBE35:
 153              	.LBE34:
 154              	.LBB36:
 155              	.LBB37:
 443:/home/tejas_tj/STM32Cube/Repository/STM32Cube_FW_L0_V1.10.0/Drivers/STM32L0xx_HAL_Driver/Inc/stm32l0xx_ll_exti.h **** 
 156              		.loc 2 443 0
 157 0050 5368     		ldr	r3, [r2, #4]
 158 0052 0168     		ldr	r1, [r0]
 159 0054 0B43     		orrs	r3, r1
 160 0056 5360     		str	r3, [r2, #4]
 161              	.LVL9:
 162              	.LBE37:
 163              	.LBE36:
 123:/home/tejas_tj/STM32Cube/Repository/STM32Cube_FW_L0_V1.10.0/Drivers/STM32L0xx_HAL_Driver/Src/stm32l0xx_ll_exti.c ****   /* Check the parameters */
 164              		.loc 1 123 0
 165 0058 0123     		movs	r3, #1
 166 005a E0E7     		b	.L7
 167              	.LVL10:
 168              	.L10:
 169              	.LBB38:
 170              	.LBB39:
 292:/home/tejas_tj/STM32Cube/Repository/STM32Cube_FW_L0_V1.10.0/Drivers/STM32L0xx_HAL_Driver/Inc/stm32l0xx_ll_exti.h **** }
 171              		.loc 2 292 0
 172 005c 1A4A     		ldr	r2, .L20
 173 005e 1168     		ldr	r1, [r2]
 174 0060 0B43     		orrs	r3, r1
 175              	.LVL11:
 176 0062 1360     		str	r3, [r2]
 177              	.LVL12:
 178              	.LBE39:
 179              	.LBE38:
 180              	.LBB40:
 181              	.LBB41:
ARM GAS  /tmp/ccUHhNY0.s 			page 16


 443:/home/tejas_tj/STM32Cube/Repository/STM32Cube_FW_L0_V1.10.0/Drivers/STM32L0xx_HAL_Driver/Inc/stm32l0xx_ll_exti.h **** 
 182              		.loc 2 443 0
 183 0064 5368     		ldr	r3, [r2, #4]
 184 0066 0168     		ldr	r1, [r0]
 185 0068 0B43     		orrs	r3, r1
 186 006a 5360     		str	r3, [r2, #4]
 187              	.LVL13:
 188              	.LBE41:
 189              	.LBE40:
 123:/home/tejas_tj/STM32Cube/Repository/STM32Cube_FW_L0_V1.10.0/Drivers/STM32L0xx_HAL_Driver/Src/stm32l0xx_ll_exti.c ****   /* Check the parameters */
 190              		.loc 1 123 0
 191 006c 0123     		movs	r3, #1
 192 006e D6E7     		b	.L7
 193              	.LVL14:
 194              	.L19:
 195              	.LBB42:
 196              	.LBB43:
 491:/home/tejas_tj/STM32Cube/Repository/STM32Cube_FW_L0_V1.10.0/Drivers/STM32L0xx_HAL_Driver/Inc/stm32l0xx_ll_exti.h **** }
 492:/home/tejas_tj/STM32Cube/Repository/STM32Cube_FW_L0_V1.10.0/Drivers/STM32L0xx_HAL_Driver/Inc/stm32l0xx_ll_exti.h **** 
 493:/home/tejas_tj/STM32Cube/Repository/STM32Cube_FW_L0_V1.10.0/Drivers/STM32L0xx_HAL_Driver/Inc/stm32l0xx_ll_exti.h **** 
 494:/home/tejas_tj/STM32Cube/Repository/STM32Cube_FW_L0_V1.10.0/Drivers/STM32L0xx_HAL_Driver/Inc/stm32l0xx_ll_exti.h **** /**
 495:/home/tejas_tj/STM32Cube/Repository/STM32Cube_FW_L0_V1.10.0/Drivers/STM32L0xx_HAL_Driver/Inc/stm32l0xx_ll_exti.h ****   * @brief  Indicate if ExtiLine Event request is enabled for Lines in range 0 to 31
 496:/home/tejas_tj/STM32Cube/Repository/STM32Cube_FW_L0_V1.10.0/Drivers/STM32L0xx_HAL_Driver/Inc/stm32l0xx_ll_exti.h ****   * @rmtoll EMR         EMx           LL_EXTI_IsEnabledEvent_0_31
 497:/home/tejas_tj/STM32Cube/Repository/STM32Cube_FW_L0_V1.10.0/Drivers/STM32L0xx_HAL_Driver/Inc/stm32l0xx_ll_exti.h ****   * @param  ExtiLine This parameter can be one of the following values:
 498:/home/tejas_tj/STM32Cube/Repository/STM32Cube_FW_L0_V1.10.0/Drivers/STM32L0xx_HAL_Driver/Inc/stm32l0xx_ll_exti.h ****   *         @arg @ref LL_EXTI_LINE_0
 499:/home/tejas_tj/STM32Cube/Repository/STM32Cube_FW_L0_V1.10.0/Drivers/STM32L0xx_HAL_Driver/Inc/stm32l0xx_ll_exti.h ****   *         @arg @ref LL_EXTI_LINE_1
 500:/home/tejas_tj/STM32Cube/Repository/STM32Cube_FW_L0_V1.10.0/Drivers/STM32L0xx_HAL_Driver/Inc/stm32l0xx_ll_exti.h ****   *         @arg @ref LL_EXTI_LINE_2
 501:/home/tejas_tj/STM32Cube/Repository/STM32Cube_FW_L0_V1.10.0/Drivers/STM32L0xx_HAL_Driver/Inc/stm32l0xx_ll_exti.h ****   *         @arg @ref LL_EXTI_LINE_3
 502:/home/tejas_tj/STM32Cube/Repository/STM32Cube_FW_L0_V1.10.0/Drivers/STM32L0xx_HAL_Driver/Inc/stm32l0xx_ll_exti.h ****   *         @arg @ref LL_EXTI_LINE_4
 503:/home/tejas_tj/STM32Cube/Repository/STM32Cube_FW_L0_V1.10.0/Drivers/STM32L0xx_HAL_Driver/Inc/stm32l0xx_ll_exti.h ****   *         @arg @ref LL_EXTI_LINE_5
 504:/home/tejas_tj/STM32Cube/Repository/STM32Cube_FW_L0_V1.10.0/Drivers/STM32L0xx_HAL_Driver/Inc/stm32l0xx_ll_exti.h ****   *         @arg @ref LL_EXTI_LINE_6
 505:/home/tejas_tj/STM32Cube/Repository/STM32Cube_FW_L0_V1.10.0/Drivers/STM32L0xx_HAL_Driver/Inc/stm32l0xx_ll_exti.h ****   *         @arg @ref LL_EXTI_LINE_7
 506:/home/tejas_tj/STM32Cube/Repository/STM32Cube_FW_L0_V1.10.0/Drivers/STM32L0xx_HAL_Driver/Inc/stm32l0xx_ll_exti.h ****   *         @arg @ref LL_EXTI_LINE_8
 507:/home/tejas_tj/STM32Cube/Repository/STM32Cube_FW_L0_V1.10.0/Drivers/STM32L0xx_HAL_Driver/Inc/stm32l0xx_ll_exti.h ****   *         @arg @ref LL_EXTI_LINE_9
 508:/home/tejas_tj/STM32Cube/Repository/STM32Cube_FW_L0_V1.10.0/Drivers/STM32L0xx_HAL_Driver/Inc/stm32l0xx_ll_exti.h ****   *         @arg @ref LL_EXTI_LINE_10
 509:/home/tejas_tj/STM32Cube/Repository/STM32Cube_FW_L0_V1.10.0/Drivers/STM32L0xx_HAL_Driver/Inc/stm32l0xx_ll_exti.h ****   *         @arg @ref LL_EXTI_LINE_11
 510:/home/tejas_tj/STM32Cube/Repository/STM32Cube_FW_L0_V1.10.0/Drivers/STM32L0xx_HAL_Driver/Inc/stm32l0xx_ll_exti.h ****   *         @arg @ref LL_EXTI_LINE_12
 511:/home/tejas_tj/STM32Cube/Repository/STM32Cube_FW_L0_V1.10.0/Drivers/STM32L0xx_HAL_Driver/Inc/stm32l0xx_ll_exti.h ****   *         @arg @ref LL_EXTI_LINE_13
 512:/home/tejas_tj/STM32Cube/Repository/STM32Cube_FW_L0_V1.10.0/Drivers/STM32L0xx_HAL_Driver/Inc/stm32l0xx_ll_exti.h ****   *         @arg @ref LL_EXTI_LINE_14
 513:/home/tejas_tj/STM32Cube/Repository/STM32Cube_FW_L0_V1.10.0/Drivers/STM32L0xx_HAL_Driver/Inc/stm32l0xx_ll_exti.h ****   *         @arg @ref LL_EXTI_LINE_15
 514:/home/tejas_tj/STM32Cube/Repository/STM32Cube_FW_L0_V1.10.0/Drivers/STM32L0xx_HAL_Driver/Inc/stm32l0xx_ll_exti.h ****   *         @arg @ref LL_EXTI_LINE_16
 515:/home/tejas_tj/STM32Cube/Repository/STM32Cube_FW_L0_V1.10.0/Drivers/STM32L0xx_HAL_Driver/Inc/stm32l0xx_ll_exti.h ****   *         @arg @ref LL_EXTI_LINE_17
 516:/home/tejas_tj/STM32Cube/Repository/STM32Cube_FW_L0_V1.10.0/Drivers/STM32L0xx_HAL_Driver/Inc/stm32l0xx_ll_exti.h ****   *         @arg @ref LL_EXTI_LINE_18
 517:/home/tejas_tj/STM32Cube/Repository/STM32Cube_FW_L0_V1.10.0/Drivers/STM32L0xx_HAL_Driver/Inc/stm32l0xx_ll_exti.h ****   *         @arg @ref LL_EXTI_LINE_19
 518:/home/tejas_tj/STM32Cube/Repository/STM32Cube_FW_L0_V1.10.0/Drivers/STM32L0xx_HAL_Driver/Inc/stm32l0xx_ll_exti.h ****   *         @arg @ref LL_EXTI_LINE_20
 519:/home/tejas_tj/STM32Cube/Repository/STM32Cube_FW_L0_V1.10.0/Drivers/STM32L0xx_HAL_Driver/Inc/stm32l0xx_ll_exti.h ****   *         @arg @ref LL_EXTI_LINE_21
 520:/home/tejas_tj/STM32Cube/Repository/STM32Cube_FW_L0_V1.10.0/Drivers/STM32L0xx_HAL_Driver/Inc/stm32l0xx_ll_exti.h ****   *         @arg @ref LL_EXTI_LINE_22
 521:/home/tejas_tj/STM32Cube/Repository/STM32Cube_FW_L0_V1.10.0/Drivers/STM32L0xx_HAL_Driver/Inc/stm32l0xx_ll_exti.h ****   *         @arg @ref LL_EXTI_LINE_23
 522:/home/tejas_tj/STM32Cube/Repository/STM32Cube_FW_L0_V1.10.0/Drivers/STM32L0xx_HAL_Driver/Inc/stm32l0xx_ll_exti.h ****   *         @arg @ref LL_EXTI_LINE_24
 523:/home/tejas_tj/STM32Cube/Repository/STM32Cube_FW_L0_V1.10.0/Drivers/STM32L0xx_HAL_Driver/Inc/stm32l0xx_ll_exti.h ****   *         @arg @ref LL_EXTI_LINE_25
 524:/home/tejas_tj/STM32Cube/Repository/STM32Cube_FW_L0_V1.10.0/Drivers/STM32L0xx_HAL_Driver/Inc/stm32l0xx_ll_exti.h ****   *         @arg @ref LL_EXTI_LINE_26
 525:/home/tejas_tj/STM32Cube/Repository/STM32Cube_FW_L0_V1.10.0/Drivers/STM32L0xx_HAL_Driver/Inc/stm32l0xx_ll_exti.h ****   *         @arg @ref LL_EXTI_LINE_27
 526:/home/tejas_tj/STM32Cube/Repository/STM32Cube_FW_L0_V1.10.0/Drivers/STM32L0xx_HAL_Driver/Inc/stm32l0xx_ll_exti.h ****   *         @arg @ref LL_EXTI_LINE_28
 527:/home/tejas_tj/STM32Cube/Repository/STM32Cube_FW_L0_V1.10.0/Drivers/STM32L0xx_HAL_Driver/Inc/stm32l0xx_ll_exti.h ****   *         @arg @ref LL_EXTI_LINE_29
 528:/home/tejas_tj/STM32Cube/Repository/STM32Cube_FW_L0_V1.10.0/Drivers/STM32L0xx_HAL_Driver/Inc/stm32l0xx_ll_exti.h ****   *         @arg @ref LL_EXTI_LINE_30
 529:/home/tejas_tj/STM32Cube/Repository/STM32Cube_FW_L0_V1.10.0/Drivers/STM32L0xx_HAL_Driver/Inc/stm32l0xx_ll_exti.h ****   *         @arg @ref LL_EXTI_LINE_31
 530:/home/tejas_tj/STM32Cube/Repository/STM32Cube_FW_L0_V1.10.0/Drivers/STM32L0xx_HAL_Driver/Inc/stm32l0xx_ll_exti.h ****   *         @arg @ref LL_EXTI_LINE_ALL_0_31
ARM GAS  /tmp/ccUHhNY0.s 			page 17


 531:/home/tejas_tj/STM32Cube/Repository/STM32Cube_FW_L0_V1.10.0/Drivers/STM32L0xx_HAL_Driver/Inc/stm32l0xx_ll_exti.h ****   * @note   Please check each device line mapping for EXTI Line availability
 532:/home/tejas_tj/STM32Cube/Repository/STM32Cube_FW_L0_V1.10.0/Drivers/STM32L0xx_HAL_Driver/Inc/stm32l0xx_ll_exti.h ****   * @retval State of bit (1 or 0).
 533:/home/tejas_tj/STM32Cube/Repository/STM32Cube_FW_L0_V1.10.0/Drivers/STM32L0xx_HAL_Driver/Inc/stm32l0xx_ll_exti.h ****   */
 534:/home/tejas_tj/STM32Cube/Repository/STM32Cube_FW_L0_V1.10.0/Drivers/STM32L0xx_HAL_Driver/Inc/stm32l0xx_ll_exti.h **** __STATIC_INLINE uint32_t LL_EXTI_IsEnabledEvent_0_31(uint32_t ExtiLine)
 535:/home/tejas_tj/STM32Cube/Repository/STM32Cube_FW_L0_V1.10.0/Drivers/STM32L0xx_HAL_Driver/Inc/stm32l0xx_ll_exti.h **** {
 536:/home/tejas_tj/STM32Cube/Repository/STM32Cube_FW_L0_V1.10.0/Drivers/STM32L0xx_HAL_Driver/Inc/stm32l0xx_ll_exti.h ****   return (READ_BIT(EXTI->EMR, ExtiLine) == (ExtiLine));
 537:/home/tejas_tj/STM32Cube/Repository/STM32Cube_FW_L0_V1.10.0/Drivers/STM32L0xx_HAL_Driver/Inc/stm32l0xx_ll_exti.h **** 
 538:/home/tejas_tj/STM32Cube/Repository/STM32Cube_FW_L0_V1.10.0/Drivers/STM32L0xx_HAL_Driver/Inc/stm32l0xx_ll_exti.h **** }
 539:/home/tejas_tj/STM32Cube/Repository/STM32Cube_FW_L0_V1.10.0/Drivers/STM32L0xx_HAL_Driver/Inc/stm32l0xx_ll_exti.h **** 
 540:/home/tejas_tj/STM32Cube/Repository/STM32Cube_FW_L0_V1.10.0/Drivers/STM32L0xx_HAL_Driver/Inc/stm32l0xx_ll_exti.h **** 
 541:/home/tejas_tj/STM32Cube/Repository/STM32Cube_FW_L0_V1.10.0/Drivers/STM32L0xx_HAL_Driver/Inc/stm32l0xx_ll_exti.h **** /**
 542:/home/tejas_tj/STM32Cube/Repository/STM32Cube_FW_L0_V1.10.0/Drivers/STM32L0xx_HAL_Driver/Inc/stm32l0xx_ll_exti.h ****   * @}
 543:/home/tejas_tj/STM32Cube/Repository/STM32Cube_FW_L0_V1.10.0/Drivers/STM32L0xx_HAL_Driver/Inc/stm32l0xx_ll_exti.h ****   */
 544:/home/tejas_tj/STM32Cube/Repository/STM32Cube_FW_L0_V1.10.0/Drivers/STM32L0xx_HAL_Driver/Inc/stm32l0xx_ll_exti.h **** 
 545:/home/tejas_tj/STM32Cube/Repository/STM32Cube_FW_L0_V1.10.0/Drivers/STM32L0xx_HAL_Driver/Inc/stm32l0xx_ll_exti.h **** /** @defgroup EXTI_LL_EF_Rising_Trigger_Management Rising_Trigger_Management
 546:/home/tejas_tj/STM32Cube/Repository/STM32Cube_FW_L0_V1.10.0/Drivers/STM32L0xx_HAL_Driver/Inc/stm32l0xx_ll_exti.h ****   * @{
 547:/home/tejas_tj/STM32Cube/Repository/STM32Cube_FW_L0_V1.10.0/Drivers/STM32L0xx_HAL_Driver/Inc/stm32l0xx_ll_exti.h ****   */
 548:/home/tejas_tj/STM32Cube/Repository/STM32Cube_FW_L0_V1.10.0/Drivers/STM32L0xx_HAL_Driver/Inc/stm32l0xx_ll_exti.h **** 
 549:/home/tejas_tj/STM32Cube/Repository/STM32Cube_FW_L0_V1.10.0/Drivers/STM32L0xx_HAL_Driver/Inc/stm32l0xx_ll_exti.h **** /**
 550:/home/tejas_tj/STM32Cube/Repository/STM32Cube_FW_L0_V1.10.0/Drivers/STM32L0xx_HAL_Driver/Inc/stm32l0xx_ll_exti.h ****   * @brief  Enable ExtiLine Rising Edge Trigger for Lines in range 0 to 31
 551:/home/tejas_tj/STM32Cube/Repository/STM32Cube_FW_L0_V1.10.0/Drivers/STM32L0xx_HAL_Driver/Inc/stm32l0xx_ll_exti.h ****   * @note The configurable wakeup lines are edge-triggered. No glitch must be
 552:/home/tejas_tj/STM32Cube/Repository/STM32Cube_FW_L0_V1.10.0/Drivers/STM32L0xx_HAL_Driver/Inc/stm32l0xx_ll_exti.h ****   *       generated on these lines. If a rising edge on a configurable interrupt
 553:/home/tejas_tj/STM32Cube/Repository/STM32Cube_FW_L0_V1.10.0/Drivers/STM32L0xx_HAL_Driver/Inc/stm32l0xx_ll_exti.h ****   *       line occurs during a write operation in the EXTI_RTSR register, the
 554:/home/tejas_tj/STM32Cube/Repository/STM32Cube_FW_L0_V1.10.0/Drivers/STM32L0xx_HAL_Driver/Inc/stm32l0xx_ll_exti.h ****   *       pending bit is not set.
 555:/home/tejas_tj/STM32Cube/Repository/STM32Cube_FW_L0_V1.10.0/Drivers/STM32L0xx_HAL_Driver/Inc/stm32l0xx_ll_exti.h ****   *       Rising and falling edge triggers can be set for
 556:/home/tejas_tj/STM32Cube/Repository/STM32Cube_FW_L0_V1.10.0/Drivers/STM32L0xx_HAL_Driver/Inc/stm32l0xx_ll_exti.h ****   *       the same interrupt line. In this case, both generate a trigger
 557:/home/tejas_tj/STM32Cube/Repository/STM32Cube_FW_L0_V1.10.0/Drivers/STM32L0xx_HAL_Driver/Inc/stm32l0xx_ll_exti.h ****   *       condition.
 558:/home/tejas_tj/STM32Cube/Repository/STM32Cube_FW_L0_V1.10.0/Drivers/STM32L0xx_HAL_Driver/Inc/stm32l0xx_ll_exti.h ****   * @rmtoll RTSR        RTx           LL_EXTI_EnableRisingTrig_0_31
 559:/home/tejas_tj/STM32Cube/Repository/STM32Cube_FW_L0_V1.10.0/Drivers/STM32L0xx_HAL_Driver/Inc/stm32l0xx_ll_exti.h ****   * @param  ExtiLine This parameter can be a combination of the following values:
 560:/home/tejas_tj/STM32Cube/Repository/STM32Cube_FW_L0_V1.10.0/Drivers/STM32L0xx_HAL_Driver/Inc/stm32l0xx_ll_exti.h ****   *         @arg @ref LL_EXTI_LINE_0
 561:/home/tejas_tj/STM32Cube/Repository/STM32Cube_FW_L0_V1.10.0/Drivers/STM32L0xx_HAL_Driver/Inc/stm32l0xx_ll_exti.h ****   *         @arg @ref LL_EXTI_LINE_1
 562:/home/tejas_tj/STM32Cube/Repository/STM32Cube_FW_L0_V1.10.0/Drivers/STM32L0xx_HAL_Driver/Inc/stm32l0xx_ll_exti.h ****   *         @arg @ref LL_EXTI_LINE_2
 563:/home/tejas_tj/STM32Cube/Repository/STM32Cube_FW_L0_V1.10.0/Drivers/STM32L0xx_HAL_Driver/Inc/stm32l0xx_ll_exti.h ****   *         @arg @ref LL_EXTI_LINE_3
 564:/home/tejas_tj/STM32Cube/Repository/STM32Cube_FW_L0_V1.10.0/Drivers/STM32L0xx_HAL_Driver/Inc/stm32l0xx_ll_exti.h ****   *         @arg @ref LL_EXTI_LINE_4
 565:/home/tejas_tj/STM32Cube/Repository/STM32Cube_FW_L0_V1.10.0/Drivers/STM32L0xx_HAL_Driver/Inc/stm32l0xx_ll_exti.h ****   *         @arg @ref LL_EXTI_LINE_5
 566:/home/tejas_tj/STM32Cube/Repository/STM32Cube_FW_L0_V1.10.0/Drivers/STM32L0xx_HAL_Driver/Inc/stm32l0xx_ll_exti.h ****   *         @arg @ref LL_EXTI_LINE_6
 567:/home/tejas_tj/STM32Cube/Repository/STM32Cube_FW_L0_V1.10.0/Drivers/STM32L0xx_HAL_Driver/Inc/stm32l0xx_ll_exti.h ****   *         @arg @ref LL_EXTI_LINE_7
 568:/home/tejas_tj/STM32Cube/Repository/STM32Cube_FW_L0_V1.10.0/Drivers/STM32L0xx_HAL_Driver/Inc/stm32l0xx_ll_exti.h ****   *         @arg @ref LL_EXTI_LINE_8
 569:/home/tejas_tj/STM32Cube/Repository/STM32Cube_FW_L0_V1.10.0/Drivers/STM32L0xx_HAL_Driver/Inc/stm32l0xx_ll_exti.h ****   *         @arg @ref LL_EXTI_LINE_9
 570:/home/tejas_tj/STM32Cube/Repository/STM32Cube_FW_L0_V1.10.0/Drivers/STM32L0xx_HAL_Driver/Inc/stm32l0xx_ll_exti.h ****   *         @arg @ref LL_EXTI_LINE_10
 571:/home/tejas_tj/STM32Cube/Repository/STM32Cube_FW_L0_V1.10.0/Drivers/STM32L0xx_HAL_Driver/Inc/stm32l0xx_ll_exti.h ****   *         @arg @ref LL_EXTI_LINE_11
 572:/home/tejas_tj/STM32Cube/Repository/STM32Cube_FW_L0_V1.10.0/Drivers/STM32L0xx_HAL_Driver/Inc/stm32l0xx_ll_exti.h ****   *         @arg @ref LL_EXTI_LINE_12
 573:/home/tejas_tj/STM32Cube/Repository/STM32Cube_FW_L0_V1.10.0/Drivers/STM32L0xx_HAL_Driver/Inc/stm32l0xx_ll_exti.h ****   *         @arg @ref LL_EXTI_LINE_13
 574:/home/tejas_tj/STM32Cube/Repository/STM32Cube_FW_L0_V1.10.0/Drivers/STM32L0xx_HAL_Driver/Inc/stm32l0xx_ll_exti.h ****   *         @arg @ref LL_EXTI_LINE_14
 575:/home/tejas_tj/STM32Cube/Repository/STM32Cube_FW_L0_V1.10.0/Drivers/STM32L0xx_HAL_Driver/Inc/stm32l0xx_ll_exti.h ****   *         @arg @ref LL_EXTI_LINE_15
 576:/home/tejas_tj/STM32Cube/Repository/STM32Cube_FW_L0_V1.10.0/Drivers/STM32L0xx_HAL_Driver/Inc/stm32l0xx_ll_exti.h ****   *         @arg @ref LL_EXTI_LINE_16
 577:/home/tejas_tj/STM32Cube/Repository/STM32Cube_FW_L0_V1.10.0/Drivers/STM32L0xx_HAL_Driver/Inc/stm32l0xx_ll_exti.h ****   *         @arg @ref LL_EXTI_LINE_18
 578:/home/tejas_tj/STM32Cube/Repository/STM32Cube_FW_L0_V1.10.0/Drivers/STM32L0xx_HAL_Driver/Inc/stm32l0xx_ll_exti.h ****   *         @arg @ref LL_EXTI_LINE_19
 579:/home/tejas_tj/STM32Cube/Repository/STM32Cube_FW_L0_V1.10.0/Drivers/STM32L0xx_HAL_Driver/Inc/stm32l0xx_ll_exti.h ****   *         @arg @ref LL_EXTI_LINE_20
 580:/home/tejas_tj/STM32Cube/Repository/STM32Cube_FW_L0_V1.10.0/Drivers/STM32L0xx_HAL_Driver/Inc/stm32l0xx_ll_exti.h ****   *         @arg @ref LL_EXTI_LINE_21
 581:/home/tejas_tj/STM32Cube/Repository/STM32Cube_FW_L0_V1.10.0/Drivers/STM32L0xx_HAL_Driver/Inc/stm32l0xx_ll_exti.h ****   *         @arg @ref LL_EXTI_LINE_22
 582:/home/tejas_tj/STM32Cube/Repository/STM32Cube_FW_L0_V1.10.0/Drivers/STM32L0xx_HAL_Driver/Inc/stm32l0xx_ll_exti.h ****   *         @arg @ref LL_EXTI_LINE_29
 583:/home/tejas_tj/STM32Cube/Repository/STM32Cube_FW_L0_V1.10.0/Drivers/STM32L0xx_HAL_Driver/Inc/stm32l0xx_ll_exti.h ****   *         @arg @ref LL_EXTI_LINE_30
 584:/home/tejas_tj/STM32Cube/Repository/STM32Cube_FW_L0_V1.10.0/Drivers/STM32L0xx_HAL_Driver/Inc/stm32l0xx_ll_exti.h ****   *         @arg @ref LL_EXTI_LINE_31
 585:/home/tejas_tj/STM32Cube/Repository/STM32Cube_FW_L0_V1.10.0/Drivers/STM32L0xx_HAL_Driver/Inc/stm32l0xx_ll_exti.h ****   * @note   Please check each device line mapping for EXTI Line availability
 586:/home/tejas_tj/STM32Cube/Repository/STM32Cube_FW_L0_V1.10.0/Drivers/STM32L0xx_HAL_Driver/Inc/stm32l0xx_ll_exti.h ****   * @retval None
 587:/home/tejas_tj/STM32Cube/Repository/STM32Cube_FW_L0_V1.10.0/Drivers/STM32L0xx_HAL_Driver/Inc/stm32l0xx_ll_exti.h ****   */
ARM GAS  /tmp/ccUHhNY0.s 			page 18


 588:/home/tejas_tj/STM32Cube/Repository/STM32Cube_FW_L0_V1.10.0/Drivers/STM32L0xx_HAL_Driver/Inc/stm32l0xx_ll_exti.h **** __STATIC_INLINE void LL_EXTI_EnableRisingTrig_0_31(uint32_t ExtiLine)
 589:/home/tejas_tj/STM32Cube/Repository/STM32Cube_FW_L0_V1.10.0/Drivers/STM32L0xx_HAL_Driver/Inc/stm32l0xx_ll_exti.h **** {
 590:/home/tejas_tj/STM32Cube/Repository/STM32Cube_FW_L0_V1.10.0/Drivers/STM32L0xx_HAL_Driver/Inc/stm32l0xx_ll_exti.h ****   SET_BIT(EXTI->RTSR, ExtiLine);
 591:/home/tejas_tj/STM32Cube/Repository/STM32Cube_FW_L0_V1.10.0/Drivers/STM32L0xx_HAL_Driver/Inc/stm32l0xx_ll_exti.h **** 
 592:/home/tejas_tj/STM32Cube/Repository/STM32Cube_FW_L0_V1.10.0/Drivers/STM32L0xx_HAL_Driver/Inc/stm32l0xx_ll_exti.h **** }
 593:/home/tejas_tj/STM32Cube/Repository/STM32Cube_FW_L0_V1.10.0/Drivers/STM32L0xx_HAL_Driver/Inc/stm32l0xx_ll_exti.h **** 
 594:/home/tejas_tj/STM32Cube/Repository/STM32Cube_FW_L0_V1.10.0/Drivers/STM32L0xx_HAL_Driver/Inc/stm32l0xx_ll_exti.h **** 
 595:/home/tejas_tj/STM32Cube/Repository/STM32Cube_FW_L0_V1.10.0/Drivers/STM32L0xx_HAL_Driver/Inc/stm32l0xx_ll_exti.h **** /**
 596:/home/tejas_tj/STM32Cube/Repository/STM32Cube_FW_L0_V1.10.0/Drivers/STM32L0xx_HAL_Driver/Inc/stm32l0xx_ll_exti.h ****   * @brief  Disable ExtiLine Rising Edge Trigger for Lines in range 0 to 31
 597:/home/tejas_tj/STM32Cube/Repository/STM32Cube_FW_L0_V1.10.0/Drivers/STM32L0xx_HAL_Driver/Inc/stm32l0xx_ll_exti.h ****   * @note The configurable wakeup lines are edge-triggered. No glitch must be
 598:/home/tejas_tj/STM32Cube/Repository/STM32Cube_FW_L0_V1.10.0/Drivers/STM32L0xx_HAL_Driver/Inc/stm32l0xx_ll_exti.h ****   *       generated on these lines. If a rising edge on a configurable interrupt
 599:/home/tejas_tj/STM32Cube/Repository/STM32Cube_FW_L0_V1.10.0/Drivers/STM32L0xx_HAL_Driver/Inc/stm32l0xx_ll_exti.h ****   *       line occurs during a write operation in the EXTI_RTSR register, the
 600:/home/tejas_tj/STM32Cube/Repository/STM32Cube_FW_L0_V1.10.0/Drivers/STM32L0xx_HAL_Driver/Inc/stm32l0xx_ll_exti.h ****   *       pending bit is not set.
 601:/home/tejas_tj/STM32Cube/Repository/STM32Cube_FW_L0_V1.10.0/Drivers/STM32L0xx_HAL_Driver/Inc/stm32l0xx_ll_exti.h ****   *       Rising and falling edge triggers can be set for
 602:/home/tejas_tj/STM32Cube/Repository/STM32Cube_FW_L0_V1.10.0/Drivers/STM32L0xx_HAL_Driver/Inc/stm32l0xx_ll_exti.h ****   *       the same interrupt line. In this case, both generate a trigger
 603:/home/tejas_tj/STM32Cube/Repository/STM32Cube_FW_L0_V1.10.0/Drivers/STM32L0xx_HAL_Driver/Inc/stm32l0xx_ll_exti.h ****   *       condition.
 604:/home/tejas_tj/STM32Cube/Repository/STM32Cube_FW_L0_V1.10.0/Drivers/STM32L0xx_HAL_Driver/Inc/stm32l0xx_ll_exti.h ****   * @rmtoll RTSR        RTx           LL_EXTI_DisableRisingTrig_0_31
 605:/home/tejas_tj/STM32Cube/Repository/STM32Cube_FW_L0_V1.10.0/Drivers/STM32L0xx_HAL_Driver/Inc/stm32l0xx_ll_exti.h ****   * @param  ExtiLine This parameter can be a combination of the following values:
 606:/home/tejas_tj/STM32Cube/Repository/STM32Cube_FW_L0_V1.10.0/Drivers/STM32L0xx_HAL_Driver/Inc/stm32l0xx_ll_exti.h ****   *         @arg @ref LL_EXTI_LINE_0
 607:/home/tejas_tj/STM32Cube/Repository/STM32Cube_FW_L0_V1.10.0/Drivers/STM32L0xx_HAL_Driver/Inc/stm32l0xx_ll_exti.h ****   *         @arg @ref LL_EXTI_LINE_1
 608:/home/tejas_tj/STM32Cube/Repository/STM32Cube_FW_L0_V1.10.0/Drivers/STM32L0xx_HAL_Driver/Inc/stm32l0xx_ll_exti.h ****   *         @arg @ref LL_EXTI_LINE_2
 609:/home/tejas_tj/STM32Cube/Repository/STM32Cube_FW_L0_V1.10.0/Drivers/STM32L0xx_HAL_Driver/Inc/stm32l0xx_ll_exti.h ****   *         @arg @ref LL_EXTI_LINE_3
 610:/home/tejas_tj/STM32Cube/Repository/STM32Cube_FW_L0_V1.10.0/Drivers/STM32L0xx_HAL_Driver/Inc/stm32l0xx_ll_exti.h ****   *         @arg @ref LL_EXTI_LINE_4
 611:/home/tejas_tj/STM32Cube/Repository/STM32Cube_FW_L0_V1.10.0/Drivers/STM32L0xx_HAL_Driver/Inc/stm32l0xx_ll_exti.h ****   *         @arg @ref LL_EXTI_LINE_5
 612:/home/tejas_tj/STM32Cube/Repository/STM32Cube_FW_L0_V1.10.0/Drivers/STM32L0xx_HAL_Driver/Inc/stm32l0xx_ll_exti.h ****   *         @arg @ref LL_EXTI_LINE_6
 613:/home/tejas_tj/STM32Cube/Repository/STM32Cube_FW_L0_V1.10.0/Drivers/STM32L0xx_HAL_Driver/Inc/stm32l0xx_ll_exti.h ****   *         @arg @ref LL_EXTI_LINE_7
 614:/home/tejas_tj/STM32Cube/Repository/STM32Cube_FW_L0_V1.10.0/Drivers/STM32L0xx_HAL_Driver/Inc/stm32l0xx_ll_exti.h ****   *         @arg @ref LL_EXTI_LINE_8
 615:/home/tejas_tj/STM32Cube/Repository/STM32Cube_FW_L0_V1.10.0/Drivers/STM32L0xx_HAL_Driver/Inc/stm32l0xx_ll_exti.h ****   *         @arg @ref LL_EXTI_LINE_9
 616:/home/tejas_tj/STM32Cube/Repository/STM32Cube_FW_L0_V1.10.0/Drivers/STM32L0xx_HAL_Driver/Inc/stm32l0xx_ll_exti.h ****   *         @arg @ref LL_EXTI_LINE_10
 617:/home/tejas_tj/STM32Cube/Repository/STM32Cube_FW_L0_V1.10.0/Drivers/STM32L0xx_HAL_Driver/Inc/stm32l0xx_ll_exti.h ****   *         @arg @ref LL_EXTI_LINE_11
 618:/home/tejas_tj/STM32Cube/Repository/STM32Cube_FW_L0_V1.10.0/Drivers/STM32L0xx_HAL_Driver/Inc/stm32l0xx_ll_exti.h ****   *         @arg @ref LL_EXTI_LINE_12
 619:/home/tejas_tj/STM32Cube/Repository/STM32Cube_FW_L0_V1.10.0/Drivers/STM32L0xx_HAL_Driver/Inc/stm32l0xx_ll_exti.h ****   *         @arg @ref LL_EXTI_LINE_13
 620:/home/tejas_tj/STM32Cube/Repository/STM32Cube_FW_L0_V1.10.0/Drivers/STM32L0xx_HAL_Driver/Inc/stm32l0xx_ll_exti.h ****   *         @arg @ref LL_EXTI_LINE_14
 621:/home/tejas_tj/STM32Cube/Repository/STM32Cube_FW_L0_V1.10.0/Drivers/STM32L0xx_HAL_Driver/Inc/stm32l0xx_ll_exti.h ****   *         @arg @ref LL_EXTI_LINE_15
 622:/home/tejas_tj/STM32Cube/Repository/STM32Cube_FW_L0_V1.10.0/Drivers/STM32L0xx_HAL_Driver/Inc/stm32l0xx_ll_exti.h ****   *         @arg @ref LL_EXTI_LINE_16
 623:/home/tejas_tj/STM32Cube/Repository/STM32Cube_FW_L0_V1.10.0/Drivers/STM32L0xx_HAL_Driver/Inc/stm32l0xx_ll_exti.h ****   *         @arg @ref LL_EXTI_LINE_18
 624:/home/tejas_tj/STM32Cube/Repository/STM32Cube_FW_L0_V1.10.0/Drivers/STM32L0xx_HAL_Driver/Inc/stm32l0xx_ll_exti.h ****   *         @arg @ref LL_EXTI_LINE_19
 625:/home/tejas_tj/STM32Cube/Repository/STM32Cube_FW_L0_V1.10.0/Drivers/STM32L0xx_HAL_Driver/Inc/stm32l0xx_ll_exti.h ****   *         @arg @ref LL_EXTI_LINE_20
 626:/home/tejas_tj/STM32Cube/Repository/STM32Cube_FW_L0_V1.10.0/Drivers/STM32L0xx_HAL_Driver/Inc/stm32l0xx_ll_exti.h ****   *         @arg @ref LL_EXTI_LINE_21
 627:/home/tejas_tj/STM32Cube/Repository/STM32Cube_FW_L0_V1.10.0/Drivers/STM32L0xx_HAL_Driver/Inc/stm32l0xx_ll_exti.h ****   *         @arg @ref LL_EXTI_LINE_22
 628:/home/tejas_tj/STM32Cube/Repository/STM32Cube_FW_L0_V1.10.0/Drivers/STM32L0xx_HAL_Driver/Inc/stm32l0xx_ll_exti.h ****   *         @arg @ref LL_EXTI_LINE_29
 629:/home/tejas_tj/STM32Cube/Repository/STM32Cube_FW_L0_V1.10.0/Drivers/STM32L0xx_HAL_Driver/Inc/stm32l0xx_ll_exti.h ****   *         @arg @ref LL_EXTI_LINE_30
 630:/home/tejas_tj/STM32Cube/Repository/STM32Cube_FW_L0_V1.10.0/Drivers/STM32L0xx_HAL_Driver/Inc/stm32l0xx_ll_exti.h ****   *         @arg @ref LL_EXTI_LINE_31
 631:/home/tejas_tj/STM32Cube/Repository/STM32Cube_FW_L0_V1.10.0/Drivers/STM32L0xx_HAL_Driver/Inc/stm32l0xx_ll_exti.h ****   * @note   Please check each device line mapping for EXTI Line availability
 632:/home/tejas_tj/STM32Cube/Repository/STM32Cube_FW_L0_V1.10.0/Drivers/STM32L0xx_HAL_Driver/Inc/stm32l0xx_ll_exti.h ****   * @retval None
 633:/home/tejas_tj/STM32Cube/Repository/STM32Cube_FW_L0_V1.10.0/Drivers/STM32L0xx_HAL_Driver/Inc/stm32l0xx_ll_exti.h ****   */
 634:/home/tejas_tj/STM32Cube/Repository/STM32Cube_FW_L0_V1.10.0/Drivers/STM32L0xx_HAL_Driver/Inc/stm32l0xx_ll_exti.h **** __STATIC_INLINE void LL_EXTI_DisableRisingTrig_0_31(uint32_t ExtiLine)
 635:/home/tejas_tj/STM32Cube/Repository/STM32Cube_FW_L0_V1.10.0/Drivers/STM32L0xx_HAL_Driver/Inc/stm32l0xx_ll_exti.h **** {
 636:/home/tejas_tj/STM32Cube/Repository/STM32Cube_FW_L0_V1.10.0/Drivers/STM32L0xx_HAL_Driver/Inc/stm32l0xx_ll_exti.h ****   CLEAR_BIT(EXTI->RTSR, ExtiLine);
 637:/home/tejas_tj/STM32Cube/Repository/STM32Cube_FW_L0_V1.10.0/Drivers/STM32L0xx_HAL_Driver/Inc/stm32l0xx_ll_exti.h **** 
 638:/home/tejas_tj/STM32Cube/Repository/STM32Cube_FW_L0_V1.10.0/Drivers/STM32L0xx_HAL_Driver/Inc/stm32l0xx_ll_exti.h **** }
 639:/home/tejas_tj/STM32Cube/Repository/STM32Cube_FW_L0_V1.10.0/Drivers/STM32L0xx_HAL_Driver/Inc/stm32l0xx_ll_exti.h **** 
 640:/home/tejas_tj/STM32Cube/Repository/STM32Cube_FW_L0_V1.10.0/Drivers/STM32L0xx_HAL_Driver/Inc/stm32l0xx_ll_exti.h **** 
 641:/home/tejas_tj/STM32Cube/Repository/STM32Cube_FW_L0_V1.10.0/Drivers/STM32L0xx_HAL_Driver/Inc/stm32l0xx_ll_exti.h **** /**
 642:/home/tejas_tj/STM32Cube/Repository/STM32Cube_FW_L0_V1.10.0/Drivers/STM32L0xx_HAL_Driver/Inc/stm32l0xx_ll_exti.h ****   * @brief  Check if rising edge trigger is enabled for Lines in range 0 to 31
 643:/home/tejas_tj/STM32Cube/Repository/STM32Cube_FW_L0_V1.10.0/Drivers/STM32L0xx_HAL_Driver/Inc/stm32l0xx_ll_exti.h ****   * @rmtoll RTSR        RTx           LL_EXTI_IsEnabledRisingTrig_0_31
 644:/home/tejas_tj/STM32Cube/Repository/STM32Cube_FW_L0_V1.10.0/Drivers/STM32L0xx_HAL_Driver/Inc/stm32l0xx_ll_exti.h ****   * @param  ExtiLine This parameter can be a combination of the following values:
ARM GAS  /tmp/ccUHhNY0.s 			page 19


 645:/home/tejas_tj/STM32Cube/Repository/STM32Cube_FW_L0_V1.10.0/Drivers/STM32L0xx_HAL_Driver/Inc/stm32l0xx_ll_exti.h ****   *         @arg @ref LL_EXTI_LINE_0
 646:/home/tejas_tj/STM32Cube/Repository/STM32Cube_FW_L0_V1.10.0/Drivers/STM32L0xx_HAL_Driver/Inc/stm32l0xx_ll_exti.h ****   *         @arg @ref LL_EXTI_LINE_1
 647:/home/tejas_tj/STM32Cube/Repository/STM32Cube_FW_L0_V1.10.0/Drivers/STM32L0xx_HAL_Driver/Inc/stm32l0xx_ll_exti.h ****   *         @arg @ref LL_EXTI_LINE_2
 648:/home/tejas_tj/STM32Cube/Repository/STM32Cube_FW_L0_V1.10.0/Drivers/STM32L0xx_HAL_Driver/Inc/stm32l0xx_ll_exti.h ****   *         @arg @ref LL_EXTI_LINE_3
 649:/home/tejas_tj/STM32Cube/Repository/STM32Cube_FW_L0_V1.10.0/Drivers/STM32L0xx_HAL_Driver/Inc/stm32l0xx_ll_exti.h ****   *         @arg @ref LL_EXTI_LINE_4
 650:/home/tejas_tj/STM32Cube/Repository/STM32Cube_FW_L0_V1.10.0/Drivers/STM32L0xx_HAL_Driver/Inc/stm32l0xx_ll_exti.h ****   *         @arg @ref LL_EXTI_LINE_5
 651:/home/tejas_tj/STM32Cube/Repository/STM32Cube_FW_L0_V1.10.0/Drivers/STM32L0xx_HAL_Driver/Inc/stm32l0xx_ll_exti.h ****   *         @arg @ref LL_EXTI_LINE_6
 652:/home/tejas_tj/STM32Cube/Repository/STM32Cube_FW_L0_V1.10.0/Drivers/STM32L0xx_HAL_Driver/Inc/stm32l0xx_ll_exti.h ****   *         @arg @ref LL_EXTI_LINE_7
 653:/home/tejas_tj/STM32Cube/Repository/STM32Cube_FW_L0_V1.10.0/Drivers/STM32L0xx_HAL_Driver/Inc/stm32l0xx_ll_exti.h ****   *         @arg @ref LL_EXTI_LINE_8
 654:/home/tejas_tj/STM32Cube/Repository/STM32Cube_FW_L0_V1.10.0/Drivers/STM32L0xx_HAL_Driver/Inc/stm32l0xx_ll_exti.h ****   *         @arg @ref LL_EXTI_LINE_9
 655:/home/tejas_tj/STM32Cube/Repository/STM32Cube_FW_L0_V1.10.0/Drivers/STM32L0xx_HAL_Driver/Inc/stm32l0xx_ll_exti.h ****   *         @arg @ref LL_EXTI_LINE_10
 656:/home/tejas_tj/STM32Cube/Repository/STM32Cube_FW_L0_V1.10.0/Drivers/STM32L0xx_HAL_Driver/Inc/stm32l0xx_ll_exti.h ****   *         @arg @ref LL_EXTI_LINE_11
 657:/home/tejas_tj/STM32Cube/Repository/STM32Cube_FW_L0_V1.10.0/Drivers/STM32L0xx_HAL_Driver/Inc/stm32l0xx_ll_exti.h ****   *         @arg @ref LL_EXTI_LINE_12
 658:/home/tejas_tj/STM32Cube/Repository/STM32Cube_FW_L0_V1.10.0/Drivers/STM32L0xx_HAL_Driver/Inc/stm32l0xx_ll_exti.h ****   *         @arg @ref LL_EXTI_LINE_13
 659:/home/tejas_tj/STM32Cube/Repository/STM32Cube_FW_L0_V1.10.0/Drivers/STM32L0xx_HAL_Driver/Inc/stm32l0xx_ll_exti.h ****   *         @arg @ref LL_EXTI_LINE_14
 660:/home/tejas_tj/STM32Cube/Repository/STM32Cube_FW_L0_V1.10.0/Drivers/STM32L0xx_HAL_Driver/Inc/stm32l0xx_ll_exti.h ****   *         @arg @ref LL_EXTI_LINE_15
 661:/home/tejas_tj/STM32Cube/Repository/STM32Cube_FW_L0_V1.10.0/Drivers/STM32L0xx_HAL_Driver/Inc/stm32l0xx_ll_exti.h ****   *         @arg @ref LL_EXTI_LINE_16
 662:/home/tejas_tj/STM32Cube/Repository/STM32Cube_FW_L0_V1.10.0/Drivers/STM32L0xx_HAL_Driver/Inc/stm32l0xx_ll_exti.h ****   *         @arg @ref LL_EXTI_LINE_18
 663:/home/tejas_tj/STM32Cube/Repository/STM32Cube_FW_L0_V1.10.0/Drivers/STM32L0xx_HAL_Driver/Inc/stm32l0xx_ll_exti.h ****   *         @arg @ref LL_EXTI_LINE_19
 664:/home/tejas_tj/STM32Cube/Repository/STM32Cube_FW_L0_V1.10.0/Drivers/STM32L0xx_HAL_Driver/Inc/stm32l0xx_ll_exti.h ****   *         @arg @ref LL_EXTI_LINE_20
 665:/home/tejas_tj/STM32Cube/Repository/STM32Cube_FW_L0_V1.10.0/Drivers/STM32L0xx_HAL_Driver/Inc/stm32l0xx_ll_exti.h ****   *         @arg @ref LL_EXTI_LINE_21
 666:/home/tejas_tj/STM32Cube/Repository/STM32Cube_FW_L0_V1.10.0/Drivers/STM32L0xx_HAL_Driver/Inc/stm32l0xx_ll_exti.h ****   *         @arg @ref LL_EXTI_LINE_22
 667:/home/tejas_tj/STM32Cube/Repository/STM32Cube_FW_L0_V1.10.0/Drivers/STM32L0xx_HAL_Driver/Inc/stm32l0xx_ll_exti.h ****   *         @arg @ref LL_EXTI_LINE_29
 668:/home/tejas_tj/STM32Cube/Repository/STM32Cube_FW_L0_V1.10.0/Drivers/STM32L0xx_HAL_Driver/Inc/stm32l0xx_ll_exti.h ****   *         @arg @ref LL_EXTI_LINE_30
 669:/home/tejas_tj/STM32Cube/Repository/STM32Cube_FW_L0_V1.10.0/Drivers/STM32L0xx_HAL_Driver/Inc/stm32l0xx_ll_exti.h ****   *         @arg @ref LL_EXTI_LINE_31
 670:/home/tejas_tj/STM32Cube/Repository/STM32Cube_FW_L0_V1.10.0/Drivers/STM32L0xx_HAL_Driver/Inc/stm32l0xx_ll_exti.h ****   * @note   Please check each device line mapping for EXTI Line availability
 671:/home/tejas_tj/STM32Cube/Repository/STM32Cube_FW_L0_V1.10.0/Drivers/STM32L0xx_HAL_Driver/Inc/stm32l0xx_ll_exti.h ****   * @retval State of bit (1 or 0).
 672:/home/tejas_tj/STM32Cube/Repository/STM32Cube_FW_L0_V1.10.0/Drivers/STM32L0xx_HAL_Driver/Inc/stm32l0xx_ll_exti.h ****   */
 673:/home/tejas_tj/STM32Cube/Repository/STM32Cube_FW_L0_V1.10.0/Drivers/STM32L0xx_HAL_Driver/Inc/stm32l0xx_ll_exti.h **** __STATIC_INLINE uint32_t LL_EXTI_IsEnabledRisingTrig_0_31(uint32_t ExtiLine)
 674:/home/tejas_tj/STM32Cube/Repository/STM32Cube_FW_L0_V1.10.0/Drivers/STM32L0xx_HAL_Driver/Inc/stm32l0xx_ll_exti.h **** {
 675:/home/tejas_tj/STM32Cube/Repository/STM32Cube_FW_L0_V1.10.0/Drivers/STM32L0xx_HAL_Driver/Inc/stm32l0xx_ll_exti.h ****   return (READ_BIT(EXTI->RTSR, ExtiLine) == (ExtiLine));
 676:/home/tejas_tj/STM32Cube/Repository/STM32Cube_FW_L0_V1.10.0/Drivers/STM32L0xx_HAL_Driver/Inc/stm32l0xx_ll_exti.h **** }
 677:/home/tejas_tj/STM32Cube/Repository/STM32Cube_FW_L0_V1.10.0/Drivers/STM32L0xx_HAL_Driver/Inc/stm32l0xx_ll_exti.h **** 
 678:/home/tejas_tj/STM32Cube/Repository/STM32Cube_FW_L0_V1.10.0/Drivers/STM32L0xx_HAL_Driver/Inc/stm32l0xx_ll_exti.h **** 
 679:/home/tejas_tj/STM32Cube/Repository/STM32Cube_FW_L0_V1.10.0/Drivers/STM32L0xx_HAL_Driver/Inc/stm32l0xx_ll_exti.h **** /**
 680:/home/tejas_tj/STM32Cube/Repository/STM32Cube_FW_L0_V1.10.0/Drivers/STM32L0xx_HAL_Driver/Inc/stm32l0xx_ll_exti.h ****   * @}
 681:/home/tejas_tj/STM32Cube/Repository/STM32Cube_FW_L0_V1.10.0/Drivers/STM32L0xx_HAL_Driver/Inc/stm32l0xx_ll_exti.h ****   */
 682:/home/tejas_tj/STM32Cube/Repository/STM32Cube_FW_L0_V1.10.0/Drivers/STM32L0xx_HAL_Driver/Inc/stm32l0xx_ll_exti.h **** 
 683:/home/tejas_tj/STM32Cube/Repository/STM32Cube_FW_L0_V1.10.0/Drivers/STM32L0xx_HAL_Driver/Inc/stm32l0xx_ll_exti.h **** /** @defgroup EXTI_LL_EF_Falling_Trigger_Management Falling_Trigger_Management
 684:/home/tejas_tj/STM32Cube/Repository/STM32Cube_FW_L0_V1.10.0/Drivers/STM32L0xx_HAL_Driver/Inc/stm32l0xx_ll_exti.h ****   * @{
 685:/home/tejas_tj/STM32Cube/Repository/STM32Cube_FW_L0_V1.10.0/Drivers/STM32L0xx_HAL_Driver/Inc/stm32l0xx_ll_exti.h ****   */
 686:/home/tejas_tj/STM32Cube/Repository/STM32Cube_FW_L0_V1.10.0/Drivers/STM32L0xx_HAL_Driver/Inc/stm32l0xx_ll_exti.h **** 
 687:/home/tejas_tj/STM32Cube/Repository/STM32Cube_FW_L0_V1.10.0/Drivers/STM32L0xx_HAL_Driver/Inc/stm32l0xx_ll_exti.h **** /**
 688:/home/tejas_tj/STM32Cube/Repository/STM32Cube_FW_L0_V1.10.0/Drivers/STM32L0xx_HAL_Driver/Inc/stm32l0xx_ll_exti.h ****   * @brief  Enable ExtiLine Falling Edge Trigger for Lines in range 0 to 31
 689:/home/tejas_tj/STM32Cube/Repository/STM32Cube_FW_L0_V1.10.0/Drivers/STM32L0xx_HAL_Driver/Inc/stm32l0xx_ll_exti.h ****   * @note The configurable wakeup lines are edge-triggered. No glitch must be
 690:/home/tejas_tj/STM32Cube/Repository/STM32Cube_FW_L0_V1.10.0/Drivers/STM32L0xx_HAL_Driver/Inc/stm32l0xx_ll_exti.h ****   *       generated on these lines. If a falling edge on a configurable interrupt
 691:/home/tejas_tj/STM32Cube/Repository/STM32Cube_FW_L0_V1.10.0/Drivers/STM32L0xx_HAL_Driver/Inc/stm32l0xx_ll_exti.h ****   *       line occurs during a write operation in the EXTI_FTSR register, the
 692:/home/tejas_tj/STM32Cube/Repository/STM32Cube_FW_L0_V1.10.0/Drivers/STM32L0xx_HAL_Driver/Inc/stm32l0xx_ll_exti.h ****   *       pending bit is not set.
 693:/home/tejas_tj/STM32Cube/Repository/STM32Cube_FW_L0_V1.10.0/Drivers/STM32L0xx_HAL_Driver/Inc/stm32l0xx_ll_exti.h ****   *       Rising and falling edge triggers can be set for
 694:/home/tejas_tj/STM32Cube/Repository/STM32Cube_FW_L0_V1.10.0/Drivers/STM32L0xx_HAL_Driver/Inc/stm32l0xx_ll_exti.h ****   *       the same interrupt line. In this case, both generate a trigger
 695:/home/tejas_tj/STM32Cube/Repository/STM32Cube_FW_L0_V1.10.0/Drivers/STM32L0xx_HAL_Driver/Inc/stm32l0xx_ll_exti.h ****   *       condition.
 696:/home/tejas_tj/STM32Cube/Repository/STM32Cube_FW_L0_V1.10.0/Drivers/STM32L0xx_HAL_Driver/Inc/stm32l0xx_ll_exti.h ****   * @rmtoll FTSR        FTx           LL_EXTI_EnableFallingTrig_0_31
 697:/home/tejas_tj/STM32Cube/Repository/STM32Cube_FW_L0_V1.10.0/Drivers/STM32L0xx_HAL_Driver/Inc/stm32l0xx_ll_exti.h ****   * @param  ExtiLine This parameter can be a combination of the following values:
 698:/home/tejas_tj/STM32Cube/Repository/STM32Cube_FW_L0_V1.10.0/Drivers/STM32L0xx_HAL_Driver/Inc/stm32l0xx_ll_exti.h ****   *         @arg @ref LL_EXTI_LINE_0
 699:/home/tejas_tj/STM32Cube/Repository/STM32Cube_FW_L0_V1.10.0/Drivers/STM32L0xx_HAL_Driver/Inc/stm32l0xx_ll_exti.h ****   *         @arg @ref LL_EXTI_LINE_1
 700:/home/tejas_tj/STM32Cube/Repository/STM32Cube_FW_L0_V1.10.0/Drivers/STM32L0xx_HAL_Driver/Inc/stm32l0xx_ll_exti.h ****   *         @arg @ref LL_EXTI_LINE_2
 701:/home/tejas_tj/STM32Cube/Repository/STM32Cube_FW_L0_V1.10.0/Drivers/STM32L0xx_HAL_Driver/Inc/stm32l0xx_ll_exti.h ****   *         @arg @ref LL_EXTI_LINE_3
ARM GAS  /tmp/ccUHhNY0.s 			page 20


 702:/home/tejas_tj/STM32Cube/Repository/STM32Cube_FW_L0_V1.10.0/Drivers/STM32L0xx_HAL_Driver/Inc/stm32l0xx_ll_exti.h ****   *         @arg @ref LL_EXTI_LINE_4
 703:/home/tejas_tj/STM32Cube/Repository/STM32Cube_FW_L0_V1.10.0/Drivers/STM32L0xx_HAL_Driver/Inc/stm32l0xx_ll_exti.h ****   *         @arg @ref LL_EXTI_LINE_5
 704:/home/tejas_tj/STM32Cube/Repository/STM32Cube_FW_L0_V1.10.0/Drivers/STM32L0xx_HAL_Driver/Inc/stm32l0xx_ll_exti.h ****   *         @arg @ref LL_EXTI_LINE_6
 705:/home/tejas_tj/STM32Cube/Repository/STM32Cube_FW_L0_V1.10.0/Drivers/STM32L0xx_HAL_Driver/Inc/stm32l0xx_ll_exti.h ****   *         @arg @ref LL_EXTI_LINE_7
 706:/home/tejas_tj/STM32Cube/Repository/STM32Cube_FW_L0_V1.10.0/Drivers/STM32L0xx_HAL_Driver/Inc/stm32l0xx_ll_exti.h ****   *         @arg @ref LL_EXTI_LINE_8
 707:/home/tejas_tj/STM32Cube/Repository/STM32Cube_FW_L0_V1.10.0/Drivers/STM32L0xx_HAL_Driver/Inc/stm32l0xx_ll_exti.h ****   *         @arg @ref LL_EXTI_LINE_9
 708:/home/tejas_tj/STM32Cube/Repository/STM32Cube_FW_L0_V1.10.0/Drivers/STM32L0xx_HAL_Driver/Inc/stm32l0xx_ll_exti.h ****   *         @arg @ref LL_EXTI_LINE_10
 709:/home/tejas_tj/STM32Cube/Repository/STM32Cube_FW_L0_V1.10.0/Drivers/STM32L0xx_HAL_Driver/Inc/stm32l0xx_ll_exti.h ****   *         @arg @ref LL_EXTI_LINE_11
 710:/home/tejas_tj/STM32Cube/Repository/STM32Cube_FW_L0_V1.10.0/Drivers/STM32L0xx_HAL_Driver/Inc/stm32l0xx_ll_exti.h ****   *         @arg @ref LL_EXTI_LINE_12
 711:/home/tejas_tj/STM32Cube/Repository/STM32Cube_FW_L0_V1.10.0/Drivers/STM32L0xx_HAL_Driver/Inc/stm32l0xx_ll_exti.h ****   *         @arg @ref LL_EXTI_LINE_13
 712:/home/tejas_tj/STM32Cube/Repository/STM32Cube_FW_L0_V1.10.0/Drivers/STM32L0xx_HAL_Driver/Inc/stm32l0xx_ll_exti.h ****   *         @arg @ref LL_EXTI_LINE_14
 713:/home/tejas_tj/STM32Cube/Repository/STM32Cube_FW_L0_V1.10.0/Drivers/STM32L0xx_HAL_Driver/Inc/stm32l0xx_ll_exti.h ****   *         @arg @ref LL_EXTI_LINE_15
 714:/home/tejas_tj/STM32Cube/Repository/STM32Cube_FW_L0_V1.10.0/Drivers/STM32L0xx_HAL_Driver/Inc/stm32l0xx_ll_exti.h ****   *         @arg @ref LL_EXTI_LINE_16
 715:/home/tejas_tj/STM32Cube/Repository/STM32Cube_FW_L0_V1.10.0/Drivers/STM32L0xx_HAL_Driver/Inc/stm32l0xx_ll_exti.h ****   *         @arg @ref LL_EXTI_LINE_18
 716:/home/tejas_tj/STM32Cube/Repository/STM32Cube_FW_L0_V1.10.0/Drivers/STM32L0xx_HAL_Driver/Inc/stm32l0xx_ll_exti.h ****   *         @arg @ref LL_EXTI_LINE_19
 717:/home/tejas_tj/STM32Cube/Repository/STM32Cube_FW_L0_V1.10.0/Drivers/STM32L0xx_HAL_Driver/Inc/stm32l0xx_ll_exti.h ****   *         @arg @ref LL_EXTI_LINE_20
 718:/home/tejas_tj/STM32Cube/Repository/STM32Cube_FW_L0_V1.10.0/Drivers/STM32L0xx_HAL_Driver/Inc/stm32l0xx_ll_exti.h ****   *         @arg @ref LL_EXTI_LINE_21
 719:/home/tejas_tj/STM32Cube/Repository/STM32Cube_FW_L0_V1.10.0/Drivers/STM32L0xx_HAL_Driver/Inc/stm32l0xx_ll_exti.h ****   *         @arg @ref LL_EXTI_LINE_22
 720:/home/tejas_tj/STM32Cube/Repository/STM32Cube_FW_L0_V1.10.0/Drivers/STM32L0xx_HAL_Driver/Inc/stm32l0xx_ll_exti.h ****   *         @arg @ref LL_EXTI_LINE_29
 721:/home/tejas_tj/STM32Cube/Repository/STM32Cube_FW_L0_V1.10.0/Drivers/STM32L0xx_HAL_Driver/Inc/stm32l0xx_ll_exti.h ****   *         @arg @ref LL_EXTI_LINE_30
 722:/home/tejas_tj/STM32Cube/Repository/STM32Cube_FW_L0_V1.10.0/Drivers/STM32L0xx_HAL_Driver/Inc/stm32l0xx_ll_exti.h ****   *         @arg @ref LL_EXTI_LINE_31
 723:/home/tejas_tj/STM32Cube/Repository/STM32Cube_FW_L0_V1.10.0/Drivers/STM32L0xx_HAL_Driver/Inc/stm32l0xx_ll_exti.h ****   * @note   Please check each device line mapping for EXTI Line availability
 724:/home/tejas_tj/STM32Cube/Repository/STM32Cube_FW_L0_V1.10.0/Drivers/STM32L0xx_HAL_Driver/Inc/stm32l0xx_ll_exti.h ****   * @retval None
 725:/home/tejas_tj/STM32Cube/Repository/STM32Cube_FW_L0_V1.10.0/Drivers/STM32L0xx_HAL_Driver/Inc/stm32l0xx_ll_exti.h ****   */
 726:/home/tejas_tj/STM32Cube/Repository/STM32Cube_FW_L0_V1.10.0/Drivers/STM32L0xx_HAL_Driver/Inc/stm32l0xx_ll_exti.h **** __STATIC_INLINE void LL_EXTI_EnableFallingTrig_0_31(uint32_t ExtiLine)
 727:/home/tejas_tj/STM32Cube/Repository/STM32Cube_FW_L0_V1.10.0/Drivers/STM32L0xx_HAL_Driver/Inc/stm32l0xx_ll_exti.h **** {
 728:/home/tejas_tj/STM32Cube/Repository/STM32Cube_FW_L0_V1.10.0/Drivers/STM32L0xx_HAL_Driver/Inc/stm32l0xx_ll_exti.h ****   SET_BIT(EXTI->FTSR, ExtiLine);
 729:/home/tejas_tj/STM32Cube/Repository/STM32Cube_FW_L0_V1.10.0/Drivers/STM32L0xx_HAL_Driver/Inc/stm32l0xx_ll_exti.h **** }
 730:/home/tejas_tj/STM32Cube/Repository/STM32Cube_FW_L0_V1.10.0/Drivers/STM32L0xx_HAL_Driver/Inc/stm32l0xx_ll_exti.h **** 
 731:/home/tejas_tj/STM32Cube/Repository/STM32Cube_FW_L0_V1.10.0/Drivers/STM32L0xx_HAL_Driver/Inc/stm32l0xx_ll_exti.h **** 
 732:/home/tejas_tj/STM32Cube/Repository/STM32Cube_FW_L0_V1.10.0/Drivers/STM32L0xx_HAL_Driver/Inc/stm32l0xx_ll_exti.h **** /**
 733:/home/tejas_tj/STM32Cube/Repository/STM32Cube_FW_L0_V1.10.0/Drivers/STM32L0xx_HAL_Driver/Inc/stm32l0xx_ll_exti.h ****   * @brief  Disable ExtiLine Falling Edge Trigger for Lines in range 0 to 31
 734:/home/tejas_tj/STM32Cube/Repository/STM32Cube_FW_L0_V1.10.0/Drivers/STM32L0xx_HAL_Driver/Inc/stm32l0xx_ll_exti.h ****   * @note The configurable wakeup lines are edge-triggered. No glitch must be
 735:/home/tejas_tj/STM32Cube/Repository/STM32Cube_FW_L0_V1.10.0/Drivers/STM32L0xx_HAL_Driver/Inc/stm32l0xx_ll_exti.h ****   *       generated on these lines. If a Falling edge on a configurable interrupt
 736:/home/tejas_tj/STM32Cube/Repository/STM32Cube_FW_L0_V1.10.0/Drivers/STM32L0xx_HAL_Driver/Inc/stm32l0xx_ll_exti.h ****   *       line occurs during a write operation in the EXTI_FTSR register, the
 737:/home/tejas_tj/STM32Cube/Repository/STM32Cube_FW_L0_V1.10.0/Drivers/STM32L0xx_HAL_Driver/Inc/stm32l0xx_ll_exti.h ****   *       pending bit is not set.
 738:/home/tejas_tj/STM32Cube/Repository/STM32Cube_FW_L0_V1.10.0/Drivers/STM32L0xx_HAL_Driver/Inc/stm32l0xx_ll_exti.h ****   *       Rising and falling edge triggers can be set for the same interrupt line.
 739:/home/tejas_tj/STM32Cube/Repository/STM32Cube_FW_L0_V1.10.0/Drivers/STM32L0xx_HAL_Driver/Inc/stm32l0xx_ll_exti.h ****   *       In this case, both generate a trigger condition.
 740:/home/tejas_tj/STM32Cube/Repository/STM32Cube_FW_L0_V1.10.0/Drivers/STM32L0xx_HAL_Driver/Inc/stm32l0xx_ll_exti.h ****   * @rmtoll FTSR        FTx           LL_EXTI_DisableFallingTrig_0_31
 741:/home/tejas_tj/STM32Cube/Repository/STM32Cube_FW_L0_V1.10.0/Drivers/STM32L0xx_HAL_Driver/Inc/stm32l0xx_ll_exti.h ****   * @param  ExtiLine This parameter can be a combination of the following values:
 742:/home/tejas_tj/STM32Cube/Repository/STM32Cube_FW_L0_V1.10.0/Drivers/STM32L0xx_HAL_Driver/Inc/stm32l0xx_ll_exti.h ****   *         @arg @ref LL_EXTI_LINE_0
 743:/home/tejas_tj/STM32Cube/Repository/STM32Cube_FW_L0_V1.10.0/Drivers/STM32L0xx_HAL_Driver/Inc/stm32l0xx_ll_exti.h ****   *         @arg @ref LL_EXTI_LINE_1
 744:/home/tejas_tj/STM32Cube/Repository/STM32Cube_FW_L0_V1.10.0/Drivers/STM32L0xx_HAL_Driver/Inc/stm32l0xx_ll_exti.h ****   *         @arg @ref LL_EXTI_LINE_2
 745:/home/tejas_tj/STM32Cube/Repository/STM32Cube_FW_L0_V1.10.0/Drivers/STM32L0xx_HAL_Driver/Inc/stm32l0xx_ll_exti.h ****   *         @arg @ref LL_EXTI_LINE_3
 746:/home/tejas_tj/STM32Cube/Repository/STM32Cube_FW_L0_V1.10.0/Drivers/STM32L0xx_HAL_Driver/Inc/stm32l0xx_ll_exti.h ****   *         @arg @ref LL_EXTI_LINE_4
 747:/home/tejas_tj/STM32Cube/Repository/STM32Cube_FW_L0_V1.10.0/Drivers/STM32L0xx_HAL_Driver/Inc/stm32l0xx_ll_exti.h ****   *         @arg @ref LL_EXTI_LINE_5
 748:/home/tejas_tj/STM32Cube/Repository/STM32Cube_FW_L0_V1.10.0/Drivers/STM32L0xx_HAL_Driver/Inc/stm32l0xx_ll_exti.h ****   *         @arg @ref LL_EXTI_LINE_6
 749:/home/tejas_tj/STM32Cube/Repository/STM32Cube_FW_L0_V1.10.0/Drivers/STM32L0xx_HAL_Driver/Inc/stm32l0xx_ll_exti.h ****   *         @arg @ref LL_EXTI_LINE_7
 750:/home/tejas_tj/STM32Cube/Repository/STM32Cube_FW_L0_V1.10.0/Drivers/STM32L0xx_HAL_Driver/Inc/stm32l0xx_ll_exti.h ****   *         @arg @ref LL_EXTI_LINE_8
 751:/home/tejas_tj/STM32Cube/Repository/STM32Cube_FW_L0_V1.10.0/Drivers/STM32L0xx_HAL_Driver/Inc/stm32l0xx_ll_exti.h ****   *         @arg @ref LL_EXTI_LINE_9
 752:/home/tejas_tj/STM32Cube/Repository/STM32Cube_FW_L0_V1.10.0/Drivers/STM32L0xx_HAL_Driver/Inc/stm32l0xx_ll_exti.h ****   *         @arg @ref LL_EXTI_LINE_10
 753:/home/tejas_tj/STM32Cube/Repository/STM32Cube_FW_L0_V1.10.0/Drivers/STM32L0xx_HAL_Driver/Inc/stm32l0xx_ll_exti.h ****   *         @arg @ref LL_EXTI_LINE_11
 754:/home/tejas_tj/STM32Cube/Repository/STM32Cube_FW_L0_V1.10.0/Drivers/STM32L0xx_HAL_Driver/Inc/stm32l0xx_ll_exti.h ****   *         @arg @ref LL_EXTI_LINE_12
 755:/home/tejas_tj/STM32Cube/Repository/STM32Cube_FW_L0_V1.10.0/Drivers/STM32L0xx_HAL_Driver/Inc/stm32l0xx_ll_exti.h ****   *         @arg @ref LL_EXTI_LINE_13
 756:/home/tejas_tj/STM32Cube/Repository/STM32Cube_FW_L0_V1.10.0/Drivers/STM32L0xx_HAL_Driver/Inc/stm32l0xx_ll_exti.h ****   *         @arg @ref LL_EXTI_LINE_14
 757:/home/tejas_tj/STM32Cube/Repository/STM32Cube_FW_L0_V1.10.0/Drivers/STM32L0xx_HAL_Driver/Inc/stm32l0xx_ll_exti.h ****   *         @arg @ref LL_EXTI_LINE_15
 758:/home/tejas_tj/STM32Cube/Repository/STM32Cube_FW_L0_V1.10.0/Drivers/STM32L0xx_HAL_Driver/Inc/stm32l0xx_ll_exti.h ****   *         @arg @ref LL_EXTI_LINE_16
ARM GAS  /tmp/ccUHhNY0.s 			page 21


 759:/home/tejas_tj/STM32Cube/Repository/STM32Cube_FW_L0_V1.10.0/Drivers/STM32L0xx_HAL_Driver/Inc/stm32l0xx_ll_exti.h ****   *         @arg @ref LL_EXTI_LINE_18
 760:/home/tejas_tj/STM32Cube/Repository/STM32Cube_FW_L0_V1.10.0/Drivers/STM32L0xx_HAL_Driver/Inc/stm32l0xx_ll_exti.h ****   *         @arg @ref LL_EXTI_LINE_19
 761:/home/tejas_tj/STM32Cube/Repository/STM32Cube_FW_L0_V1.10.0/Drivers/STM32L0xx_HAL_Driver/Inc/stm32l0xx_ll_exti.h ****   *         @arg @ref LL_EXTI_LINE_20
 762:/home/tejas_tj/STM32Cube/Repository/STM32Cube_FW_L0_V1.10.0/Drivers/STM32L0xx_HAL_Driver/Inc/stm32l0xx_ll_exti.h ****   *         @arg @ref LL_EXTI_LINE_21
 763:/home/tejas_tj/STM32Cube/Repository/STM32Cube_FW_L0_V1.10.0/Drivers/STM32L0xx_HAL_Driver/Inc/stm32l0xx_ll_exti.h ****   *         @arg @ref LL_EXTI_LINE_22
 764:/home/tejas_tj/STM32Cube/Repository/STM32Cube_FW_L0_V1.10.0/Drivers/STM32L0xx_HAL_Driver/Inc/stm32l0xx_ll_exti.h ****   *         @arg @ref LL_EXTI_LINE_29
 765:/home/tejas_tj/STM32Cube/Repository/STM32Cube_FW_L0_V1.10.0/Drivers/STM32L0xx_HAL_Driver/Inc/stm32l0xx_ll_exti.h ****   *         @arg @ref LL_EXTI_LINE_30
 766:/home/tejas_tj/STM32Cube/Repository/STM32Cube_FW_L0_V1.10.0/Drivers/STM32L0xx_HAL_Driver/Inc/stm32l0xx_ll_exti.h ****   *         @arg @ref LL_EXTI_LINE_31
 767:/home/tejas_tj/STM32Cube/Repository/STM32Cube_FW_L0_V1.10.0/Drivers/STM32L0xx_HAL_Driver/Inc/stm32l0xx_ll_exti.h ****   * @note   Please check each device line mapping for EXTI Line availability
 768:/home/tejas_tj/STM32Cube/Repository/STM32Cube_FW_L0_V1.10.0/Drivers/STM32L0xx_HAL_Driver/Inc/stm32l0xx_ll_exti.h ****   * @retval None
 769:/home/tejas_tj/STM32Cube/Repository/STM32Cube_FW_L0_V1.10.0/Drivers/STM32L0xx_HAL_Driver/Inc/stm32l0xx_ll_exti.h ****   */
 770:/home/tejas_tj/STM32Cube/Repository/STM32Cube_FW_L0_V1.10.0/Drivers/STM32L0xx_HAL_Driver/Inc/stm32l0xx_ll_exti.h **** __STATIC_INLINE void LL_EXTI_DisableFallingTrig_0_31(uint32_t ExtiLine)
 771:/home/tejas_tj/STM32Cube/Repository/STM32Cube_FW_L0_V1.10.0/Drivers/STM32L0xx_HAL_Driver/Inc/stm32l0xx_ll_exti.h **** {
 772:/home/tejas_tj/STM32Cube/Repository/STM32Cube_FW_L0_V1.10.0/Drivers/STM32L0xx_HAL_Driver/Inc/stm32l0xx_ll_exti.h ****   CLEAR_BIT(EXTI->FTSR, ExtiLine);
 197              		.loc 2 772 0
 198 0070 154A     		ldr	r2, .L20
 199 0072 D168     		ldr	r1, [r2, #12]
 200 0074 0468     		ldr	r4, [r0]
 201 0076 A143     		bics	r1, r4
 202 0078 D160     		str	r1, [r2, #12]
 203              	.LVL15:
 204              	.LBE43:
 205              	.LBE42:
 168:/home/tejas_tj/STM32Cube/Repository/STM32Cube_FW_L0_V1.10.0/Drivers/STM32L0xx_HAL_Driver/Src/stm32l0xx_ll_exti.c ****             break;
 206              		.loc 1 168 0
 207 007a 0168     		ldr	r1, [r0]
 208              	.LVL16:
 209              	.LBB44:
 210              	.LBB45:
 590:/home/tejas_tj/STM32Cube/Repository/STM32Cube_FW_L0_V1.10.0/Drivers/STM32L0xx_HAL_Driver/Inc/stm32l0xx_ll_exti.h **** 
 211              		.loc 2 590 0
 212 007c 9068     		ldr	r0, [r2, #8]
 213              	.LVL17:
 214 007e 0143     		orrs	r1, r0
 215              	.LVL18:
 216 0080 9160     		str	r1, [r2, #8]
 217              	.LVL19:
 218 0082 1DE0     		b	.L6
 219              	.LVL20:
 220              	.L11:
 221              	.LBE45:
 222              	.LBE44:
 223              	.LBB46:
 224              	.LBB47:
 636:/home/tejas_tj/STM32Cube/Repository/STM32Cube_FW_L0_V1.10.0/Drivers/STM32L0xx_HAL_Driver/Inc/stm32l0xx_ll_exti.h **** 
 225              		.loc 2 636 0
 226 0084 104A     		ldr	r2, .L20
 227 0086 9168     		ldr	r1, [r2, #8]
 228 0088 0468     		ldr	r4, [r0]
 229 008a A143     		bics	r1, r4
 230 008c 9160     		str	r1, [r2, #8]
 231              	.LVL21:
 232              	.LBE47:
 233              	.LBE46:
 174:/home/tejas_tj/STM32Cube/Repository/STM32Cube_FW_L0_V1.10.0/Drivers/STM32L0xx_HAL_Driver/Src/stm32l0xx_ll_exti.c ****             break;
 234              		.loc 1 174 0
 235 008e 0168     		ldr	r1, [r0]
ARM GAS  /tmp/ccUHhNY0.s 			page 22


 236              	.LVL22:
 237              	.LBB48:
 238              	.LBB49:
 728:/home/tejas_tj/STM32Cube/Repository/STM32Cube_FW_L0_V1.10.0/Drivers/STM32L0xx_HAL_Driver/Inc/stm32l0xx_ll_exti.h **** }
 239              		.loc 2 728 0
 240 0090 D068     		ldr	r0, [r2, #12]
 241              	.LVL23:
 242 0092 0143     		orrs	r1, r0
 243              	.LVL24:
 244 0094 D160     		str	r1, [r2, #12]
 245              	.LVL25:
 246 0096 13E0     		b	.L6
 247              	.LVL26:
 248              	.L12:
 249              	.LBE49:
 250              	.LBE48:
 251              	.LBB50:
 252              	.LBB51:
 590:/home/tejas_tj/STM32Cube/Repository/STM32Cube_FW_L0_V1.10.0/Drivers/STM32L0xx_HAL_Driver/Inc/stm32l0xx_ll_exti.h **** 
 253              		.loc 2 590 0
 254 0098 0B4A     		ldr	r2, .L20
 255 009a 9168     		ldr	r1, [r2, #8]
 256 009c 0468     		ldr	r4, [r0]
 257 009e 2143     		orrs	r1, r4
 258 00a0 9160     		str	r1, [r2, #8]
 259              	.LVL27:
 260              	.LBE51:
 261              	.LBE50:
 178:/home/tejas_tj/STM32Cube/Repository/STM32Cube_FW_L0_V1.10.0/Drivers/STM32L0xx_HAL_Driver/Src/stm32l0xx_ll_exti.c ****             break;
 262              		.loc 1 178 0
 263 00a2 0168     		ldr	r1, [r0]
 264              	.LVL28:
 265              	.LBB52:
 266              	.LBB53:
 728:/home/tejas_tj/STM32Cube/Repository/STM32Cube_FW_L0_V1.10.0/Drivers/STM32L0xx_HAL_Driver/Inc/stm32l0xx_ll_exti.h **** }
 267              		.loc 2 728 0
 268 00a4 D068     		ldr	r0, [r2, #12]
 269              	.LVL29:
 270 00a6 0143     		orrs	r1, r0
 271              	.LVL30:
 272 00a8 D160     		str	r1, [r2, #12]
 273              	.LVL31:
 274 00aa 09E0     		b	.L6
 275              	.LVL32:
 276              	.L5:
 277              	.LBE53:
 278              	.LBE52:
 279              	.LBB54:
 280              	.LBB55:
 340:/home/tejas_tj/STM32Cube/Repository/STM32Cube_FW_L0_V1.10.0/Drivers/STM32L0xx_HAL_Driver/Inc/stm32l0xx_ll_exti.h **** }
 281              		.loc 2 340 0
 282 00ac 064B     		ldr	r3, .L20
 283 00ae 1A68     		ldr	r2, [r3]
 284 00b0 0168     		ldr	r1, [r0]
 285 00b2 8A43     		bics	r2, r1
 286 00b4 1A60     		str	r2, [r3]
 287              	.LVL33:
ARM GAS  /tmp/ccUHhNY0.s 			page 23


 288              	.LBE55:
 289              	.LBE54:
 182:/home/tejas_tj/STM32Cube/Repository/STM32Cube_FW_L0_V1.10.0/Drivers/STM32L0xx_HAL_Driver/Src/stm32l0xx_ll_exti.c ****             break;
 183:/home/tejas_tj/STM32Cube/Repository/STM32Cube_FW_L0_V1.10.0/Drivers/STM32L0xx_HAL_Driver/Src/stm32l0xx_ll_exti.c ****         }
 184:/home/tejas_tj/STM32Cube/Repository/STM32Cube_FW_L0_V1.10.0/Drivers/STM32L0xx_HAL_Driver/Src/stm32l0xx_ll_exti.c ****       }
 185:/home/tejas_tj/STM32Cube/Repository/STM32Cube_FW_L0_V1.10.0/Drivers/STM32L0xx_HAL_Driver/Src/stm32l0xx_ll_exti.c ****     }
 186:/home/tejas_tj/STM32Cube/Repository/STM32Cube_FW_L0_V1.10.0/Drivers/STM32L0xx_HAL_Driver/Src/stm32l0xx_ll_exti.c ****   }
 187:/home/tejas_tj/STM32Cube/Repository/STM32Cube_FW_L0_V1.10.0/Drivers/STM32L0xx_HAL_Driver/Src/stm32l0xx_ll_exti.c ****   /* DISABLE LineCommand */
 188:/home/tejas_tj/STM32Cube/Repository/STM32Cube_FW_L0_V1.10.0/Drivers/STM32L0xx_HAL_Driver/Src/stm32l0xx_ll_exti.c ****   else
 189:/home/tejas_tj/STM32Cube/Repository/STM32Cube_FW_L0_V1.10.0/Drivers/STM32L0xx_HAL_Driver/Src/stm32l0xx_ll_exti.c ****   {
 190:/home/tejas_tj/STM32Cube/Repository/STM32Cube_FW_L0_V1.10.0/Drivers/STM32L0xx_HAL_Driver/Src/stm32l0xx_ll_exti.c ****     /* De-configure EXTI Lines in range from 0 to 31 */
 191:/home/tejas_tj/STM32Cube/Repository/STM32Cube_FW_L0_V1.10.0/Drivers/STM32L0xx_HAL_Driver/Src/stm32l0xx_ll_exti.c ****     LL_EXTI_DisableIT_0_31(EXTI_InitStruct->Line_0_31);
 192:/home/tejas_tj/STM32Cube/Repository/STM32Cube_FW_L0_V1.10.0/Drivers/STM32L0xx_HAL_Driver/Src/stm32l0xx_ll_exti.c ****     LL_EXTI_DisableEvent_0_31(EXTI_InitStruct->Line_0_31);
 290              		.loc 1 192 0
 291 00b6 0168     		ldr	r1, [r0]
 292              	.LVL34:
 293              	.LBB56:
 294              	.LBB57:
 490:/home/tejas_tj/STM32Cube/Repository/STM32Cube_FW_L0_V1.10.0/Drivers/STM32L0xx_HAL_Driver/Inc/stm32l0xx_ll_exti.h **** }
 295              		.loc 2 490 0
 296 00b8 5A68     		ldr	r2, [r3, #4]
 297 00ba 8A43     		bics	r2, r1
 298 00bc 5A60     		str	r2, [r3, #4]
 299              	.LBE57:
 300              	.LBE56:
 123:/home/tejas_tj/STM32Cube/Repository/STM32Cube_FW_L0_V1.10.0/Drivers/STM32L0xx_HAL_Driver/Src/stm32l0xx_ll_exti.c ****   /* Check the parameters */
 301              		.loc 1 123 0
 302 00be 0123     		movs	r3, #1
 303              	.LVL35:
 304              	.L6:
 193:/home/tejas_tj/STM32Cube/Repository/STM32Cube_FW_L0_V1.10.0/Drivers/STM32L0xx_HAL_Driver/Src/stm32l0xx_ll_exti.c ****   }
 194:/home/tejas_tj/STM32Cube/Repository/STM32Cube_FW_L0_V1.10.0/Drivers/STM32L0xx_HAL_Driver/Src/stm32l0xx_ll_exti.c ****   return status;
 195:/home/tejas_tj/STM32Cube/Repository/STM32Cube_FW_L0_V1.10.0/Drivers/STM32L0xx_HAL_Driver/Src/stm32l0xx_ll_exti.c **** }
 305              		.loc 1 195 0
 306 00c0 1800     		movs	r0, r3
 307              		@ sp needed
 308 00c2 10BD     		pop	{r4, pc}
 309              	.LVL36:
 310              	.L14:
 123:/home/tejas_tj/STM32Cube/Repository/STM32Cube_FW_L0_V1.10.0/Drivers/STM32L0xx_HAL_Driver/Src/stm32l0xx_ll_exti.c ****   /* Check the parameters */
 311              		.loc 1 123 0
 312 00c4 0123     		movs	r3, #1
 313 00c6 FBE7     		b	.L6
 314              	.L21:
 315              		.align	2
 316              	.L20:
 317 00c8 00040140 		.word	1073808384
 318              		.cfi_endproc
 319              	.LFE51:
 321              		.section	.text.LL_EXTI_StructInit,"ax",%progbits
 322              		.align	1
 323              		.global	LL_EXTI_StructInit
 324              		.syntax unified
 325              		.code	16
 326              		.thumb_func
 327              		.fpu softvfp
 329              	LL_EXTI_StructInit:
ARM GAS  /tmp/ccUHhNY0.s 			page 24


 330              	.LFB52:
 196:/home/tejas_tj/STM32Cube/Repository/STM32Cube_FW_L0_V1.10.0/Drivers/STM32L0xx_HAL_Driver/Src/stm32l0xx_ll_exti.c **** 
 197:/home/tejas_tj/STM32Cube/Repository/STM32Cube_FW_L0_V1.10.0/Drivers/STM32L0xx_HAL_Driver/Src/stm32l0xx_ll_exti.c **** /**
 198:/home/tejas_tj/STM32Cube/Repository/STM32Cube_FW_L0_V1.10.0/Drivers/STM32L0xx_HAL_Driver/Src/stm32l0xx_ll_exti.c ****   * @brief  Set each @ref LL_EXTI_InitTypeDef field to default value.
 199:/home/tejas_tj/STM32Cube/Repository/STM32Cube_FW_L0_V1.10.0/Drivers/STM32L0xx_HAL_Driver/Src/stm32l0xx_ll_exti.c ****   * @param  EXTI_InitStruct Pointer to a @ref LL_EXTI_InitTypeDef structure.
 200:/home/tejas_tj/STM32Cube/Repository/STM32Cube_FW_L0_V1.10.0/Drivers/STM32L0xx_HAL_Driver/Src/stm32l0xx_ll_exti.c ****   * @retval None
 201:/home/tejas_tj/STM32Cube/Repository/STM32Cube_FW_L0_V1.10.0/Drivers/STM32L0xx_HAL_Driver/Src/stm32l0xx_ll_exti.c ****   */
 202:/home/tejas_tj/STM32Cube/Repository/STM32Cube_FW_L0_V1.10.0/Drivers/STM32L0xx_HAL_Driver/Src/stm32l0xx_ll_exti.c **** void LL_EXTI_StructInit(LL_EXTI_InitTypeDef *EXTI_InitStruct)
 203:/home/tejas_tj/STM32Cube/Repository/STM32Cube_FW_L0_V1.10.0/Drivers/STM32L0xx_HAL_Driver/Src/stm32l0xx_ll_exti.c **** {
 331              		.loc 1 203 0
 332              		.cfi_startproc
 333              		@ args = 0, pretend = 0, frame = 0
 334              		@ frame_needed = 0, uses_anonymous_args = 0
 335              		@ link register save eliminated.
 336              	.LVL37:
 204:/home/tejas_tj/STM32Cube/Repository/STM32Cube_FW_L0_V1.10.0/Drivers/STM32L0xx_HAL_Driver/Src/stm32l0xx_ll_exti.c ****   EXTI_InitStruct->Line_0_31      = LL_EXTI_LINE_NONE;
 337              		.loc 1 204 0
 338 0000 0023     		movs	r3, #0
 339 0002 0360     		str	r3, [r0]
 205:/home/tejas_tj/STM32Cube/Repository/STM32Cube_FW_L0_V1.10.0/Drivers/STM32L0xx_HAL_Driver/Src/stm32l0xx_ll_exti.c ****   EXTI_InitStruct->LineCommand    = DISABLE;
 340              		.loc 1 205 0
 341 0004 0371     		strb	r3, [r0, #4]
 206:/home/tejas_tj/STM32Cube/Repository/STM32Cube_FW_L0_V1.10.0/Drivers/STM32L0xx_HAL_Driver/Src/stm32l0xx_ll_exti.c ****   EXTI_InitStruct->Mode           = LL_EXTI_MODE_IT;
 342              		.loc 1 206 0
 343 0006 4371     		strb	r3, [r0, #5]
 207:/home/tejas_tj/STM32Cube/Repository/STM32Cube_FW_L0_V1.10.0/Drivers/STM32L0xx_HAL_Driver/Src/stm32l0xx_ll_exti.c ****   EXTI_InitStruct->Trigger        = LL_EXTI_TRIGGER_FALLING;
 344              		.loc 1 207 0
 345 0008 0233     		adds	r3, r3, #2
 346 000a 8371     		strb	r3, [r0, #6]
 208:/home/tejas_tj/STM32Cube/Repository/STM32Cube_FW_L0_V1.10.0/Drivers/STM32L0xx_HAL_Driver/Src/stm32l0xx_ll_exti.c **** }
 347              		.loc 1 208 0
 348              		@ sp needed
 349 000c 7047     		bx	lr
 350              		.cfi_endproc
 351              	.LFE52:
 353              		.text
 354              	.Letext0:
 355              		.file 3 "/usr/local/gcc-arm-none-eabi-6-2017-q2-update/arm-none-eabi/include/machine/_default_type
 356              		.file 4 "/usr/local/gcc-arm-none-eabi-6-2017-q2-update/arm-none-eabi/include/sys/_stdint.h"
 357              		.file 5 "/home/tejas_tj/STM32Cube/Repository/STM32Cube_FW_L0_V1.10.0/Drivers/CMSIS/Device/ST/STM32
 358              		.file 6 "/home/tejas_tj/STM32Cube/Repository/STM32Cube_FW_L0_V1.10.0/Drivers/CMSIS/Device/ST/STM32
 359              		.file 7 "/home/tejas_tj/STM32Cube/Repository/STM32Cube_FW_L0_V1.10.0/Drivers/CMSIS/Device/ST/STM32
ARM GAS  /tmp/ccUHhNY0.s 			page 25


DEFINED SYMBOLS
                            *ABS*:0000000000000000 stm32l0xx_ll_exti.c
     /tmp/ccUHhNY0.s:16     .text.LL_EXTI_DeInit:0000000000000000 $t
     /tmp/ccUHhNY0.s:23     .text.LL_EXTI_DeInit:0000000000000000 LL_EXTI_DeInit
     /tmp/ccUHhNY0.s:54     .text.LL_EXTI_DeInit:0000000000000018 $d
     /tmp/ccUHhNY0.s:61     .text.LL_EXTI_Init:0000000000000000 $t
     /tmp/ccUHhNY0.s:68     .text.LL_EXTI_Init:0000000000000000 LL_EXTI_Init
     /tmp/ccUHhNY0.s:317    .text.LL_EXTI_Init:00000000000000c8 $d
     /tmp/ccUHhNY0.s:322    .text.LL_EXTI_StructInit:0000000000000000 $t
     /tmp/ccUHhNY0.s:329    .text.LL_EXTI_StructInit:0000000000000000 LL_EXTI_StructInit
                     .debug_frame:0000000000000010 $d

NO UNDEFINED SYMBOLS
